(dp0
I1
F66.46
sI2
F20.15
sI3
F20.15
sI4
F15.17
sI5
F20.15
sI6
F25.2
sI7
F29.66
sI8
F25.17
sI9
F1.48
sI10
F18.4
sI11
F20.15
sI12
F24.28
sI13
F2.15
sI14
F575.84
sI15
F75.18
sI16
F4.51
sI17
F20.02
sI18
F20.15
sI19
F20.15
sI20
F20.02
sI21
F1.55
sI22
F0.84
sI23
F21.66
sI24
F2.38
sI25
F12.73
sI26
F17.48
sI27
F26.98
sI28
F3.44
sI29
F11.96
sI30
F16.44
sI31
F6.55
sI32
F139.0
sI33
F45.96
sI34
F57.27
sI35
F7.16
sI36
F49.77
sI37
F20.14
sI38
F29.91
sI39
F23.92
sI40
F18.35
sI41
F47.78
sI42
F53.18
sI43
F35.92
sI44
F5.34
sI45
F5.97
sI46
F9.98
sI47
F16.77
sI48
F15.25
sI49
F10.47
sI50
F1.78
sI51
F12.58
sI52
F19.99
sI53
F20.66
sI54
F17.08
sI55
F1.38
sI56
F3.2
sI57
F4.87
sI58
F1.47
sI59
F2.38
sI60
F5.98
sI61
F12.58
sI62
F5.98
sI63
F20.04
sI64
F20.13
sI65
F20.04
sI66
F12.9
sI67
F20.15
sI68
F20.02
sI69
F20.04
sI70
F20.04
sI71
F20.15
sI72
F20.15
sI73
F16.72
sI74
F19.99
sI75
F2.9
sI76
F1.47
sI77
F6.38
sI78
F47.91
sI79
F43.08
sI80
F35.98
sI81
F41.32
sI82
F24.61
sI83
F59.48
sI84
F9.98
sI85
F3.92
sI86
F14.36
sI87
F24.96
sI88
F14.38
sI89
F17.98
sI90
F89.98
sI91
F89.98
sI92
F119.97
sI93
F15.98
sI94
F11.18
sI95
F8.98
sI96
F23.98
sI97
F20.96
sI98
F1.0
sI99
F7.0
sI100
F3.13
sI101
F21.23
sI102
F22.96
sI103
F4.96
sI104
F26.98
sI105
F17.98
sI106
F29.98
sI107
F11.98
sI108
F23.98
sI109
F27.96
sI110
F49.98
sI111
F20.68
sI112
F12.33
sI113
F20.23
sI114
F33.71
sI115
F6.28
sI116
F9.99
sI117
F26.98
sI118
F29.72
sI119
F53.98
sI120
F13.58
sI121
F75.98
sI122
F19.98
sI123
F75.96
sI124
F1.28
sI125
F53.98
sI126
F24.28
sI127
F14.23
sI128
F10.38
sI129
F22.46
sI130
F19.98
sI131
F6.77
sI132
F2.76
sI133
F18.0
sI134
F18.98
sI135
F17.98
sI136
F10.78
sI137
F499.98
sI138
F2.47
sI139
F10.78
sI140
F3.23
sI141
F1.58
sI142
F25.17
sI143
F27.98
sI144
F38.2
sI145
F9.92
sI146
F20.67
sI147
F11.98
sI148
F38.67
sI149
F14.38
sI150
F19.98
sI151
F7.18
sI152
F17.08
sI153
F8.08
sI154
F2.53
sI155
F27.95
sI156
F49.71
sI157
F89.98
sI158
F1.58
sI159
F66.53
sI160
F2.68
sI161
F70.01
sI162
F117.39
sI163
F3.98
sI164
F60.17
sI165
F89.98
sI166
F35.99
sI167
F1.91
sI168
F31.42
sI169
F11.88
sI170
F18.68
sI171
F2.98
sI172
F7.6
sI173
F7.18
sI174
F399.98
sI175
F23.38
sI176
F9.87
sI177
F63.69
sI178
F5.55
sI179
F3.98
sI180
F7.7
sI181
F7.17
sI182
F16.15
sI183
F5.98
sI184
F2.72
sI185
F40.1
sI186
F17.56
sI187
F5.34
sI188
F14.7
sI189
F33.57
sI190
F17.98
sI191
F1.98
sI192
F44.98
sI193
F35.96
sI194
F20.97
sI195
F27.88
sI196
F33.98
sI197
F11.18
sI198
F5.58
sI199
F4.88
sI200
F53.98
sI201
F2.67
sI202
F14.38
sI203
F2.47
sI204
F10.78
sI205
F89.98
sI206
F6.29
sI207
F14.96
sI208
F10.48
sI209
F2.23
sI210
F1.48
sI211
F3.0
sI212
F49.56
sI213
F1.72
sI214
F6.38
sI215
F25.15
sI216
F16.13
sI217
F3.78
sI218
F29.97
sI219
F29.9
sI220
F40.17
sI221
F71.2
sI222
F19.78
sI223
F24.87
sI224
F5.96
sI225
F9.84
sI226
F58.45
sI227
F55.4
sI228
F35.16
sI229
F50.93
sI230
F21.96
sI231
F82.73
sI232
F4.97
sI233
F66.35
sI234
F14.35
sI235
F29.72
sI236
F34.95
sI237
F34.95
sI238
F1.78
sI239
F19.17
sI240
F6.38
sI241
F29.97
sI242
F3.9
sI243
F11.98
sI244
F16.76
sI245
F11.68
sI246
F7.98
sI247
F23.98
sI248
F25.37
sI249
F89.98
sI250
F19.99
sI251
F14.97
sI252
F4.23
sI253
F16.16
sI254
F19.98
sI255
F1.38
sI256
F2.4
sI257
F14.21
sI258
F25.47
sI259
F10.48
sI260
F7.76
sI261
F41.36
sI262
F72.85
sI263
F5.38
sI264
F5.93
sI265
F21.97
sI266
F30.36
sI267
F35.95
sI268
F13.56
sI269
F7.18
sI270
F3.98
sI271
F9.57
sI272
F14.66
sI273
F3.5
sI274
F11.98
sI275
F28.81
sI276
F21.58
sI277
F2.79
sI278
F12.76
sI279
F17.94
sI280
F11.16
sI281
F17.56
sI282
F7.63
sI283
F4.47
sI284
F10.43
sI285
F25.57
sI286
F49.48
sI287
F23.96
sI288
F29.99
sI289
F3.58
sI290
F6.68
sI291
F11.68
sI292
F4.47
sI293
F7.1
sI294
F9.02
sI295
F59.98
sI296
F17.08
sI297
F224.61
sI298
F3.19
sI299
F49.46
sI300
F10.4
sI301
F3.45
sI302
F5.63
sI303
F24.46
sI304
F49.33
sI305
F2.98
sI306
F3.38
sI307
F16.36
sI308
F15.18
sI309
F23.92
sI310
F46.79
sI311
F13.58
sI312
F74.97
sI313
F30.21
sI314
F17.41
sI315
F99.52
sI316
F4.55
sI317
F15.27
sI318
F28.39
sI319
F1.54
sI320
F4.32
sI321
F6.93
sI322
F11.97
sI323
F5.98
sI324
F3.0
sI325
F17.83
sI326
F0.99
sI327
F3.21
sI328
F8.08
sI329
F80.98
sI330
F38.21
sI331
F25.81
sI332
F20.97
sI333
F54.53
sI334
F23.37
sI335
F45.96
sI336
F84.46
sI337
F30.48
sI338
F16.98
sI339
F33.7
sI340
F23.95
sI341
F18.66
sI342
F16.97
sI343
F35.96
sI344
F14.98
sI345
F15.02
sI346
F20.93
sI347
F20.93
sI348
F9.58
sI349
F12.77
sI350
F18.38
sI351
F63.51
sI352
F20.91
sI353
F83.92
sI354
F80.95
sI355
F33.71
sI356
F3.31
sI357
F25.48
sI358
F97.43
sI359
F2.68
sI360
F25.56
sI361
F125.96
sI362
F6.71
sI363
F26.36
sI364
F22.48
sI365
F63.73
sI366
F40.44
sI367
F55.95
sI368
F120.96
sI369
F9.73
sI370
F11.68
sI371
F89.98
sI372
F33.96
sI373
F253.07
sI374
F6.53
sI375
F18.53
sI376
F27.96
sI377
F10.17
sI378
F8.53
sI379
F42.46
sI380
F27.96
sI381
F27.96
sI382
F27.96
sI383
F62.97
sI384
F103.08
sI385
F22.37
sI386
F34.4
sI387
F6.73
sI388
F5.98
sI389
F5.23
sI390
F7.91
sI391
F17.94
sI392
F6.73
sI393
F13.46
sI394
F16.45
sI395
F11.21
sI396
F19.43
sI397
F21.68
sI398
F8.23
sI399
F53.97
sI400
F35.6
sI401
F19.52
sI402
F270.25
sI403
F20.56
sI404
F54.54
sI405
F144.92
sI406
F3.57
sI407
F6.77
sI408
F2.78
sI409
F29.95
sI410
F21.7
sI411
F2.52
sI412
F39.87
sI413
F19.98
sI414
F19.16
sI415
F8.38
sI416
F7.47
sI417
F45.74
sI418
F14.38
sI419
F5.99
sI420
F5.93
sI421
F69.97
sI422
F134.95
sI423
F1.36
sI424
F89.91
sI425
F103.48
sI426
F17.82
sI427
F104.89
sI428
F5.21
sI429
F8.97
sI430
F40.63
sI431
F10.78
sI432
F35.64
sI433
F31.97
sI434
F179.98
sI435
F7.35
sI436
F109.22
sI437
F12.99
sI438
F17.96
sI439
F10.46
sI440
F44.98
sI441
F43.15
sI442
F39.61
sI443
F10.1
sI444
F5.56
sI445
F38.21
sI446
F5.06
sI447
F67.2
sI448
F136.13
sI449
F29.35
sI450
F12.56
sI451
F19.97
sI452
F14.92
sI453
F9.98
sI454
F89.2
sI455
F24.76
sI456
F25.98
sI457
F35.22
sI458
F119.32
sI459
F61.52
sI460
F228.97
sI461
F29.7
sI462
F29.7
sI463
F39.9
sI464
F39.9
sI465
F36.52
sI466
F90.45
sI467
F29.98
sI468
F22.48
sI469
F14.96
sI470
F29.22
sI471
F13.71
sI472
F5.36
sI473
F29.72
sI474
F89.98
sI475
F25.57
sI476
F18.98
sI477
F7.18
sI478
F184.43
sI479
F100.76
sI480
F141.17
sI481
F218.52
sI482
F11.97
sI483
F2.97
sI484
F313.38
sI485
F119.93
sI486
F11.97
sI487
F48.74
sI488
F126.93
sI489
F34.25
sI490
F98.98
sI491
F135.98
sI492
F24.82
sI493
F13.48
sI494
F208.17
sI495
F69.37
sI496
F60.31
sI497
F51.24
sI498
F19.51
sI499
F80.52
sI500
F11.03
sI501
F6.85
sI502
F39.95
sI503
F46.76
sI504
F6.28
sI505
F107.88
sI506
F25.88
sI507
F8.37
sI508
F14.98
sI509
F27.34
sI510
F39.47
sI511
F44.66
sI512
F3.73
sI513
F90.88
sI514
F10.4
sI515
F30.02
sI516
F20.71
sI517
F26.76
sI518
F16.17
sI519
F12.73
sI520
F76.46
sI521
F89.24
sI522
F40.02
sI523
F144.67
sI524
F134.95
sI525
F3.99
sI526
F3.99
sI527
F3.99
sI528
F3.99
sI529
F56.56
sI530
F13.28
sI531
F172.43
sI532
F42.56
sI533
F39.72
sI534
F27.72
sI535
F4.78
sI536
F20.74
sI537
F2.97
sI538
F127.48
sI539
F26.08
sI540
F31.38
sI541
F11.98
sI542
F109.98
sI543
F332.27
sI544
F9.56
sI545
F53.98
sI546
F11.68
sI547
F80.68
sI548
F11.98
sI549
F27.85
sI550
F30.02
sI551
F161.95
sI552
F18.37
sI553
F12.25
sI554
F24.87
sI555
F34.85
sI556
F23.97
sI557
F19.98
sI558
F11.98
sI559
F11.88
sI560
F3.79
sI561
F9.43
sI562
F14.27
sI563
F3.98
sI564
F63.46
sI565
F26.08
sI566
F22.48
sI567
F17.94
sI568
F15.69
sI569
F17.82
sI570
F9.56
sI571
F2.68
sI572
F9.25
sI573
F9.87
sI574
F9.48
sI575
F39.72
sI576
F26.05
sI577
F69.63
sI578
F36.85
sI579
F44.85
sI580
F74.72
sI581
F295.28
sI582
F33.71
sI583
F26.97
sI584
F10.46
sI585
F35.07
sI586
F12.51
sI587
F10.48
sI588
F9.88
sI589
F16.76
sI590
F5.98
sI591
F8.98
sI592
F3.5
sI593
F112.65
sI594
F95.08
sI595
F118.25
sI596
F19.72
sI597
F10.18
sI598
F11.88
sI599
F39.48
sI600
F7.12
sI601
F5.58
sI602
F14.36
sI603
F11.02
sI604
F14.66
sI605
F17.98
sI606
F48.4
sI607
F10.78
sI608
F14.37
sI609
F5.58
sI610
F6.96
sI611
F2.66
sI612
F16.18
sI613
F43.3
sI614
F5.58
sI615
F4.77
s.