ccollections
defaultdict
p0
(c__builtin__
list
p1
tp2
Rp3
I0
c__builtin__
set
p4
((lp5
I1147
aI742
aI291
aI1868
aI1581
aI2515
aI1705
aI2744
aI2547
aI739
aI1303
aI1304
aI1305
aI1403
atp6
Rp7
sI1
g4
((lp8
I1419
aI1420
aI1421
aI1422
aI1423
aI1424
aI1425
aI1426
aI1427
aI1428
aI1429
aI1430
aI1431
atp9
Rp10
sI2
g4
((lp11
I1440
aI1441
aI1442
aI1443
aI1444
aI1445
aI1433
aI1434
aI1435
aI1436
aI1437
aI1438
aI1439
atp12
Rp13
sI3
g4
((lp14
I288
aI1057
aI1875
aI713
aI1874
aI1873
aI594
aI595
aI596
aI314
atp15
Rp16
sI4
g4
((lp17
I1218
aI1219
aI1220
aI1221
aI1223
aI1224
aI1225
aI1706
aI1227
aI1228
aI1229
aI1230
aI1226
atp18
Rp19
sI5
g4
((lp20
I1537
aI356
aI1542
aI775
aI363
aI765
aI374
aI1583
aI349
atp21
Rp22
sI6
g4
((lp23
I1032
aI2034
aI2027
aI1677
atp24
Rp25
sI7
g4
((lp26
I2762
aI2766
aI655
atp27
Rp28
sI8
g4
((lp29
I699
aI2734
atp30
Rp31
sI9
g4
((lp32
I2145
aI2150
aI2143
atp33
Rp34
sI10
g4
((lp35
I1408
aI1409
aI1410
aI1411
aI1412
aI1413
aI1414
aI1415
aI1416
aI1417
aI2738
aI1405
aI1407
atp36
Rp37
sI11
g4
((lp38
I1477
aI863
atp39
Rp40
sI12
g4
((lp41
I2627
aI923
atp42
Rp43
sI13
g4
((lp44
I2051
aI2693
aI2694
aI2695
aI2696
aI2697
aI2698
aI2699
aI2700
aI2702
aI2703
aI2704
aI788
aI789
aI790
aI791
aI792
aI793
aI1310
aI2545
aI1233
aI432
aI1608
aI1331
aI2809
aI1595
aI1854
aI1601
aI225
aI200
aI1104
aI1272
aI1234
aI1235
aI1620
aI1237
aI2775
aI1626
aI480
aI2768
aI2811
aI1764
aI1766
aI1617
aI2812
aI637
aI2417
aI2805
aI2806
aI2808
aI1145
aI2810
aI635
aI636
aI1277
aI1150
atp45
Rp46
sI14
g4
((lp47
I808
aI1675
atp48
Rp49
sI15
g4
((lp50
I912
aI866
aI1515
aI2626
aI2039
atp51
Rp52
sI16
g4
((lp53
I544
aI545
aI290
aI547
aI548
aI549
aI294
aI551
aI331
aI309
aI538
aI539
aI542
aI543
atp54
Rp55
sI17
g4
((lp56
I576
aI577
aI578
aI579
aI580
aI568
aI569
aI570
aI571
aI572
aI573
aI574
aI575
atp57
Rp58
sI18
g4
((lp59
I684
aI685
aI686
aI687
aI688
aI689
aI691
aI692
aI693
aI694
aI695
aI696
aI1117
atp60
Rp61
sI19
g4
((lp62
I554
aI555
aI364
aI557
aI558
aI559
aI560
aI561
aI563
aI372
aI565
aI566
aI567
aI564
atp63
Rp64
sI20
g4
((lp65
I1794
aI1795
aI261
aI262
aI263
aI264
aI265
aI2282
aI2283
aI2284
aI2220
aI2751
atp66
Rp67
sI21
g4
((lp68
I1794
aI1795
aI261
aI262
aI263
aI264
aI265
aI2282
aI2283
aI2284
aI2751
atp69
Rp70
sI22
g4
((lp71
I1009
aI295
aI1255
aI553
atp72
Rp73
sI23
g4
((lp74
I833
aI75
atp75
Rp76
sI24
g4
((lp77
I1097
aI2093
atp78
Rp79
sI25
g4
((lp80
I514
aI506
atp81
Rp82
sI26
g4
((lp83
I1028
aI2405
atp84
Rp85
sI27
g4
((lp86
I2785
aI1958
aI1030
aI2550
aI118
aI2199
atp87
Rp88
sI28
g4
((lp89
I1380
aI802
aI900
aI871
atp90
Rp91
sI29
g4
((lp92
I802
aI900
aI871
aI1352
aI2601
aI1951
atp93
Rp94
sI30
g4
((lp95
I1944
aI2570
aI1043
aI892
aI1642
atp96
Rp97
sI31
g4
((lp98
I1282
aI1283
aI1040
aI1523
aI1208
aI1524
aI1339
aI1340
aI1341
aI1342
aI1343
aI1344
aI1345
aI1346
aI1347
aI2385
aI1533
aI1525
aI2413
aI1135
aI1136
aI1137
aI1138
aI1139
aI1140
aI1141
aI1526
aI1527
aI1528
aI1529
aI1530
aI1531
aI1532
aI2045
aI1534
aI1535
atp99
Rp100
sI32
g4
((lp101
I2130
aI2131
aI2132
aI1831
atp102
Rp103
sI33
g4
((lp104
I1152
aI1157
aI1496
aI1175
aI1690
aI1179
aI1183
aI1185
aI1191
aI1244
aI1840
aI1458
aI1203
aI1232
aI1112
aI1241
aI1116
aI1119
aI1122
aI1125
aI1128
aI1132
aI1143
atp105
Rp106
sI34
g4
((lp107
I1105
aI1740
aI86
aI532
atp108
Rp109
sI35
g4
((lp110
I1667
aI1676
aI2477
atp111
Rp112
sI36
g4
((lp113
I1656
aI2467
atp114
Rp115
sI37
g4
((lp116
I2754
aI740
aI1133
aI2158
aI2541
aI464
aI462
aI463
aI732
atp117
Rp118
sI38
g4
((lp119
I2754
aI740
aI2541
aI462
aI463
aI464
aI2158
aI732
atp120
Rp121
sI39
g4
((lp122
I1889
aI1252
aI872
aI682
aI1966
aI111
aI2106
aI78
aI1398
aI1561
aI2266
aI219
aI925
aI1822
aI373
atp123
Rp124
sI40
g4
((lp125
I914
aI434
atp126
Rp127
sI41
g4
((lp128
I1761
aI1302
aI905
aI2155
aI2156
aI1484
aI1519
aI2102
aI1513
aI345
aI1756
aI2109
atp129
Rp130
sI42
g4
((lp131
I1513
aI2155
aI2156
aI1519
aI2102
aI345
aI1484
aI2109
atp132
Rp133
sI43
g4
((lp134
I1270
aI2487
atp135
Rp136
sI44
g4
((lp137
I1697
aI940
aI253
atp138
Rp139
sI45
g4
((lp140
I2673
aI2175
atp141
Rp142
sI46
g4
((lp143
I2664
aI2665
aI1696
atp144
Rp145
sI47
g4
((lp146
I2393
aI34
aI955
aI2387
aI53
atp147
Rp148
sI48
g4
((lp149
I2394
aI947
aI2397
atp150
Rp151
sI49
g4
((lp152
I25
aI1540
atp153
Rp154
sI50
g4
((lp155
I1929
aI1471
atp156
Rp157
sI51
g4
((lp158
I832
aI1711
atp159
Rp160
sI52
g4
((lp161
I507
aI2191
atp162
Rp163
sI53
g4
((lp164
I2816
aI936
atp165
Rp166
sI54
g4
((lp167
I1329
aI459
atp168
Rp169
sI55
g4
((lp170
I2358
aI911
atp171
Rp172
sI56
g4
((lp173
I1061
aI1926
aI2035
aI500
aI1022
aI2423
aI666
aI1276
aI2014
atp174
Rp175
sI57
g4
((lp176
I715
aI1260
aI1381
atp177
Rp178
sI58
g4
((lp179
I666
aI2035
aI2423
atp180
Rp181
sI59
g4
((lp182
I2312
aI665
atp183
Rp184
sI60
g4
((lp185
I873
aI1866
atp186
Rp187
sI61
g4
((lp188
I680
aI747
atp189
Rp190
sI62
g4
((lp191
I2272
aI2273
aI2274
aI2275
aI2276
aI2277
aI2278
aI2267
aI2268
aI2269
aI2270
aI2271
atp192
Rp193
sI63
g4
((lp194
I2304
aI2305
aI2306
aI2307
aI2308
aI2298
aI2299
aI2300
aI2301
aI2302
aI2303
atp195
Rp196
sI64
g4
((lp197
I2336
aI2337
aI2338
aI2339
aI2328
aI2329
aI2330
aI2331
aI2332
aI2333
aI2334
aI2335
atp198
Rp199
sI65
g4
((lp200
I801
aI1094
aI1045
aI1046
aI1048
aI1050
aI1051
aI1052
aI1053
aI1054
atp201
Rp202
sI66
g4
((lp203
I2624
aI2625
aI2629
aI1382
aI1383
aI2632
aI2636
aI1393
aI2638
aI1391
aI2640
aI1392
aI1618
atp204
Rp205
sI67
g4
((lp206
I1632
aI1633
aI1634
aI1635
aI1636
aI1637
aI1638
aI1639
aI1640
aI1641
aI1192
aI1630
aI1790
aI1631
atp207
Rp208
sI68
g4
((lp209
I2529
aI2285
aI2286
aI2287
aI2288
aI2289
aI2290
aI2291
aI2292
aI2293
aI2294
aI2295
atp210
Rp211
sI69
g4
((lp212
I1986
aI2315
aI2316
aI2317
aI2318
aI2320
aI2321
aI2322
aI2323
aI2324
aI2325
aI2326
atp213
Rp214
sI70
g4
((lp215
I320
aI321
aI322
aI323
aI324
aI325
aI326
aI1807
aI315
aI316
aI317
aI318
aI319
atp216
Rp217
sI71
g4
((lp218
I1355
aI1356
aI1357
aI1358
aI1359
aI1360
aI1361
aI1362
aI1363
aI1364
aI1365
aI1366
aI2617
atp219
Rp220
sI72
g4
((lp221
I368
aI2513
aI1988
atp222
Rp223
sI73
g4
((lp224
I2500
aI85
atp225
Rp226
sI74
g4
((lp227
I1024
aI1329
aI2123
aI1013
aI1894
atp228
Rp229
sI75
g4
((lp230
I116
aI933
aI2783
atp231
Rp232
sI76
g4
((lp233
I283
aI1644
atp234
Rp235
sI77
g4
((lp236
I1188
aI1196
aI2573
aI2608
aI2609
aI2610
aI2611
aI1205
aI1213
atp237
Rp238
sI78
g4
((lp239
I2250
aI2251
aI2252
aI2253
aI2254
aI2255
aI2256
aI2257
aI2258
aI2419
aI2420
aI2421
atp240
Rp241
sI79
g4
((lp242
I1544
aI1995
atp243
Rp244
sI80
g4
((lp245
I2658
aI2659
aI2660
aI2661
aI2663
aI1544
aI1995
aI1847
atp246
Rp247
sI81
g4
((lp248
I1969
aI146
aI1725
aI145
atp249
Rp250
sI82
g4
((lp251
I1922
aI1887
atp252
Rp253
sI83
g4
((lp254
I897
aI2187
aI556
aI2246
aI2015
atp255
Rp256
sI84
g4
((lp257
I1059
aI843
aI1613
aI2351
aI112
aI1266
aI761
aI2063
atp258
Rp259
sI85
g4
((lp260
I1838
aI452
aI453
aI454
atp261
Rp262
sI86
g4
((lp263
I645
aI966
atp264
Rp265
sI87
g4
((lp266
I2185
aI1982
atp267
Rp268
sI88
g4
((lp269
I670
aI2790
atp270
Rp271
sI89
g4
((lp272
I438
aI1055
atp273
Rp274
sI90
g4
((lp275
I430
aI438
atp276
Rp277
sI91
g4
((lp278
I430
aI438
aI1055
atp279
Rp280
sI92
g4
((lp281
I2117
aI2606
atp282
Rp283
sI93
g4
((lp284
I1981
aI2231
atp285
Rp286
sI94
g4
((lp287
I1418
aI213
atp288
Rp289
sI95
g4
((lp290
I232
aI233
atp291
Rp292
sI96
g4
((lp293
I1588
aI1580
aI2533
aI785
atp294
Rp295
sI97
g4
((lp296
I2208
aI498
atp297
Rp298
sI98
g4
((lp299
I2412
aI2474
aI20
aI14
aI2486
atp300
Rp301
sI99
g4
((lp302
I536
aI1727
atp303
Rp304
sI100
g4
((lp305
I1872
aI614
atp306
Rp307
sI101
g4
((lp308
I218
aI436
aI437
aI287
atp309
Rp310
sI102
g4
((lp311
I2197
aI1199
atp312
Rp313
sI103
g4
((lp314
I1836
aI2685
atp315
Rp316
sI104
g4
((lp317
I2040
aI1058
atp318
Rp319
sI105
g4
((lp320
I2504
aI1605
atp321
Rp322
sI106
g4
((lp323
I1891
aI1155
atp324
Rp325
sI107
g4
((lp326
I170
aI2411
atp327
Rp328
sI108
g4
((lp329
I2144
aI2490
aI956
aI2127
atp330
Rp331
sI109
g4
((lp332
I2192
aI1
atp333
Rp334
sI110
g4
((lp335
I299
aI651
atp336
Rp337
sI111
g4
((lp338
I1012
aI1461
atp339
Rp340
sI112
g4
((lp341
I1090
aI852
atp342
Rp343
sI113
g4
((lp344
I984
aI1463
aI1245
aI1781
atp345
Rp346
sI114
g4
((lp347
I1275
aI2125
atp348
Rp349
sI115
g4
((lp350
I1334
aI767
atp351
Rp352
sI116
g4
((lp353
I1216
aI1818
atp354
Rp355
sI117
g4
((lp356
I1248
aI812
aI446
atp357
Rp358
sI118
g4
((lp359
I397
aI2101
atp360
Rp361
sI119
g4
((lp362
I676
aI783
atp363
Rp364
sI120
g4
((lp365
I473
atp366
Rp367
sI121
g4
((lp368
I934
aI2511
atp369
Rp370
sI122
g4
((lp371
I416
aI2439
aI62
aI159
atp372
Rp373
sI123
g4
((lp374
I717
aI1247
atp375
Rp376
sI124
g4
((lp377
I508
aI1735
atp378
Rp379
sI125
g4
((lp380
I840
aI822
atp381
Rp382
sI126
g4
((lp383
I531
aI869
atp384
Rp385
sI127
g4
((lp386
I1603
aI405
atp387
Rp388
sI128
g4
((lp389
I2491
aI2492
aI155
aI2493
atp390
Rp391
sI129
g4
((lp392
I2602
aI2598
atp393
Rp394
sI130
g4
((lp395
I114
aI546
aI191
atp396
Rp397
sI131
g4
((lp398
I169
aI2452
aI2750
aI2753
atp399
Rp400
sI132
g4
((lp401
I2728
aI1971
aI1495
atp402
Rp403
sI133
g4
((lp404
I714
aI909
atp405
Rp406
sI134
g4
((lp407
I2473
aI1325
atp408
Rp409
sI135
g4
((lp410
I1763
aI1574
atp411
Rp412
sI136
g4
((lp413
I248
aI1100
atp414
Rp415
sI137
g4
((lp416
I2202
aI2683
aI917
aI1475
atp417
Rp418
sI138
g4
((lp419
I1940
aI1508
atp420
Rp421
sI139
g4
((lp422
I1068
aI2630
atp423
Rp424
sI140
g4
((lp425
I2458
aI851
atp426
Rp427
sI141
g4
((lp428
I1330
aI1683
aI1500
aI2350
atp429
Rp430
sI142
g4
((lp431
I2362
aI2516
atp432
Rp433
sI143
g4
((lp434
I984
aI1463
aI1092
aI1245
aI1781
atp435
Rp436
sI144
g4
((lp437
I2099
aI2237
atp438
Rp439
sI145
g4
((lp440
I267
aI2021
aI797
atp441
Rp442
sI146
g4
((lp443
I2776
aI227
atp444
Rp445
sI147
g4
((lp446
I2585
aI2053
aI1823
atp447
Rp448
sI148
g4
((lp449
I2444
aI2813
atp450
Rp451
sI149
g4
((lp452
I610
aI2564
atp453
Rp454
sI150
g4
((lp455
I1568
aI199
atp456
Rp457
sI151
g4
((lp458
I2745
aI668
atp459
Rp460
sI152
g4
((lp461
I769
aI341
atp462
Rp463
sI153
g4
((lp464
I97
aI982
atp465
Rp466
sI154
g4
((lp467
I2752
aI1799
atp468
Rp469
sI155
g4
((lp470
I1538
aI707
aI1350
aI1798
aI1738
aI1547
aI465
aI1554
aI606
aI470
aI1560
aI1917
aI478
atp471
Rp472
sI156
g4
((lp473
I2051
aI430
atp474
Rp475
sI157
g4
((lp476
I1771
aI1124
atp477
Rp478
sI158
g4
((lp479
I2343
aI1549
aI656
aI663
aI664
aI667
aI669
atp480
Rp481
sI159
g4
((lp482
I2010
aI2
atp483
Rp484
sI160
g4
((lp485
I2544
aI2475
aI876
aI875
aI2476
aI877
aI2478
aI2479
aI2480
aI509
atp486
Rp487
sI161
g4
((lp488
I1667
aI1676
aI1678
aI1679
aI1680
aI1681
aI274
aI275
aI276
aI277
aI1689
aI1698
aI2468
aI1701
aI1702
aI1703
aI1832
aI1685
aI1074
aI2613
aI2614
aI1598
aI1604
aI1093
aI1611
aI1186
aI1998
aI2769
aI850
aI1700
aI932
aI1897
aI875
aI876
aI877
aI2544
aI1813
atp489
Rp490
sI162
g4
((lp491
I489
aI1102
atp492
Rp493
sI163
g4
((lp494
I2769
aI1587
aI1829
atp495
Rp496
sI164
g4
((lp497
I1667
aI1676
aI2477
aI1678
aI1679
aI1680
aI1681
aI274
aI275
aI276
aI277
aI1406
atp498
Rp499
sI165
g4
((lp500
I2475
aI2476
aI2478
aI2479
aI2480
aI509
atp501
Rp502
sI166
g4
((lp503
I1107
aI1599
atp504
Rp505
sI167
g4
((lp506
I1490
aI2118
aI2543
atp507
Rp508
sI168
g4
((lp509
I2398
aI2735
atp510
Rp511
sI169
g4
((lp512
I173
aI2118
atp513
Rp514
sI170
g4
((lp515
I1512
aI217
atp516
Rp517
sI171
g4
((lp518
I2121
aI2795
aI1501
aI2374
aI819
atp519
Rp520
sI172
g4
((lp521
I1571
aI503
atp522
Rp523
sI173
g4
((lp524
I248
aI293
atp525
Rp526
sI174
g4
((lp527
I1202
aI1198
atp528
Rp529
sI175
g4
((lp530
I2072
aI1744
aI2005
atp531
Rp532
sI176
g4
((lp533
I2535
aI2536
aI1354
aI1643
aI27
aI703
atp534
Rp535
sI177
g4
((lp536
I59
aI2171
aI1869
aI2174
aI758
atp537
Rp538
sI178
g4
((lp539
I1489
aI1861
atp540
Rp541
sI179
g4
((lp542
I2801
aI2482
aI830
aI2647
atp543
Rp544
sI180
g4
((lp545
I2801
aI2482
aI830
atp546
Rp547
sI181
g4
((lp548
I1042
aI1037
aI501
aI2590
aI1039
atp549
Rp550
sI182
g4
((lp551
I2633
aI1190
atp552
Rp553
sI183
g4
((lp554
I2586
aI2179
aI2539
atp555
Rp556
sI184
g4
((lp557
I2472
aI2675
aI2581
aI1118
aI2669
atp558
Rp559
sI185
g4
((lp560
I1929
aI1085
aI1734
aI1081
atp561
Rp562
sI186
g4
((lp563
I1697
aI940
atp564
Rp565
sI187
g4
((lp566
I2179
aI268
aI917
aI2586
aI666
aI1061
aI1066
aI1993
aI1083
aI957
aI1475
aI1481
aI2129
aI1502
aI993
aI1506
aI101
aI2539
aI2035
aI500
aI2423
aI1018
aI1276
aI1022
atp567
Rp568
sI188
g4
((lp569
I704
aI2451
aI1236
atp570
Rp571
sI189
g4
((lp572
I2008
aI433
atp573
Rp574
sI190
g4
((lp575
I772
aI997
atp576
Rp577
sI191
g4
((lp578
I1488
aI2580
atp579
Rp580
sI192
g4
((lp581
I1049
aI467
aI949
aI1558
atp582
Rp583
sI193
g4
((lp584
I2616
aI2634
aI2603
atp585
Rp586
sI194
g4
((lp587
I2568
aI271
atp588
Rp589
sI195
g4
((lp590
I2108
aI1862
atp591
Rp592
sI196
g4
((lp593
I2168
aI440
atp594
Rp595
sI197
g4
((lp596
I795
aI2244
atp597
Rp598
sI198
g4
((lp599
I2186
aI228
atp600
Rp601
sI199
g4
((lp602
I970
aI1661
atp603
Rp604
sI200
g4
((lp605
I1148
aI1493
aI1149
atp606
Rp607
sI201
g4
((lp608
I2410
aI2787
atp609
Rp610
sI202
g4
((lp611
I712
aI517
aI1015
atp612
Rp613
sI203
g4
((lp614
I1691
aI2062
atp615
Rp616
sI204
g4
((lp617
I809
aI430
atp618
Rp619
sI205
g4
((lp620
I2050
aI1739
atp621
Rp622
sI206
g4
((lp623
I552
aI258
aI1211
aI1210
atp624
Rp625
sI207
g4
((lp626
I2394
aI2397
atp627
Rp628
sI208
g4
((lp629
I2449
aI2708
atp630
Rp631
sI209
g4
((lp632
I913
aI2087
atp633
Rp634
sI210
g4
((lp635
I1666
aI2149
aI599
atp636
Rp637
sI211
g4
((lp638
I2376
aI2386
aI827
aI2375
atp639
Rp640
sI212
g4
((lp641
I2240
aI1006
aI2662
atp642
Rp643
sI213
g4
((lp644
I802
aI1951
atp645
Rp646
sI214
g4
((lp647
I2159
aI1163
aI2494
aI886
aI479
atp648
Rp649
sI215
g4
((lp650
I886
aI2159
atp651
Rp652
sI216
g4
((lp653
I1024
aI2208
aI715
aI749
aI2063
aI1266
aI2783
atp654
Rp655
sI217
g4
((lp656
I2314
aI155
aI2803
atp657
Rp658
sI218
g4
((lp659
I153
aI2370
aI151
atp660
Rp661
sI219
g4
((lp662
I64
aI409
aI381
atp663
Rp664
sI220
g4
((lp665
I96
aI425
aI90
aI93
aI2313
atp666
Rp667
sI221
g4
((lp668
I2025
aI2509
atp669
Rp670
sI222
g4
((lp671
I1782
aI2134
aI2127
atp672
Rp673
sI223
g4
((lp674
I2692
aI1652
aI1653
aI1654
atp675
Rp676
sI224
g4
((lp677
I1754
aI303
atp678
Rp679
sI225
g4
((lp680
I2384
aI120
aI408
aI190
aI71
atp681
Rp682
sI226
g4
((lp683
I960
aI448
aI203
aI2788
aI2789
aI2791
aI2505
aI1707
aI460
aI916
aI2105
aI444
atp684
Rp685
sI227
g4
((lp686
I1104
aI1595
aI1620
aI1237
atp687
Rp688
sI228
g4
((lp689
I1317
aI1318
aI618
aI2641
aI1682
aI1207
aI127
atp690
Rp691
sI229
g4
((lp692
I824
aI820
aI1070
aI1071
atp693
Rp694
sI230
g4
((lp695
I2592
aI944
aI2595
aI2599
aI2448
aI1592
aI126
atp696
Rp697
sI231
g4
((lp698
I1616
aI2193
aI823
atp699
Rp700
sI232
g4
((lp701
I1664
aI1600
aI2566
aI1222
aI2216
aI2761
aI2576
aI2088
aI306
aI148
aI2057
aI216
aI2297
aI730
aI1193
atp702
Rp703
sI233
g4
((lp704
I312
aI466
aI1699
aI388
aI2146
atp705
Rp706
sI234
g4
((lp707
I1937
aI690
aI1299
atp708
Rp709
sI235
g4
((lp710
I2281
aI2553
aI2310
aI2670
aI2631
atp711
Rp712
sI236
g4
((lp713
I1369
aI2522
aI2540
aI2230
aI2542
atp714
Rp715
sI237
g4
((lp716
I1397
aI422
atp717
Rp718
sI238
g4
((lp719
I92
aI676
aI783
atp720
Rp721
sI239
g4
((lp722
I2482
aI830
atp723
Rp724
sI240
g4
((lp725
I2433
aI2777
aI2799
atp726
Rp727
sI241
g4
((lp728
I2801
aI2647
atp729
Rp730
sI242
g4
((lp731
I2514
aI61
atp732
Rp733
sI243
g4
((lp734
I2168
aI2049
aI115
aI2311
atp735
Rp736
sI244
g4
((lp737
I1402
aI5
atp738
Rp739
sI245
g4
((lp740
I115
aI1879
atp741
Rp742
sI246
g4
((lp743
I908
aI1991
atp744
Rp745
sI247
g4
((lp746
I1760
aI865
aI962
aI1810
aI787
aI2454
aI2551
aI379
aI285
atp747
Rp748
sI248
g4
((lp749
I430
aI359
atp750
Rp751
sI249
g4
((lp752
I449
aI2778
atp753
Rp754
sI250
g4
((lp755
I525
aI526
aI679
atp756
Rp757
sI251
g4
((lp758
I1217
aI2133
atp759
Rp760
sI252
g4
((lp761
I928
aI720
aI524
aI1253
atp762
Rp763
sI253
g4
((lp764
I2757
aI2061
atp765
Rp766
sI254
g4
((lp767
I187
aI2502
atp768
Rp769
sI255
g4
((lp770
I1083
aI268
aI1022
aI2035
atp771
Rp772
sI256
g4
((lp773
I0
aI1257
aI519
atp774
Rp775
sI257
g4
((lp776
I1290
aI2148
aI1293
atp777
Rp778
sI258
g4
((lp779
tp780
Rp781
sI259
g4
((lp782
I1881
aI298
aI1645
aI221
atp783
Rp784
sI260
g4
((lp785
I2496
aI1730
aI2228
aI781
atp786
Rp787
sI261
g4
((lp788
I2496
aI1730
aI2228
aI781
aI461
atp789
Rp790
sI262
g4
((lp791
I1881
aI1645
atp792
Rp793
sI263
g4
((lp794
I298
aI221
atp795
Rp796
sI264
g4
((lp797
I488
aI2024
aI2483
atp798
Rp799
sI265
g4
((lp800
I280
aI1153
aI234
aI943
atp801
Rp802
sI266
g4
((lp803
I216
aI2057
aI730
aI1222
aI1193
atp804
Rp805
sI267
g4
((lp806
I1879
aI1380
aI29
aI1951
atp807
Rp808
sI268
g4
((lp809
I481
aI1662
atp810
Rp811
sI269
g4
((lp812
I847
aI871
atp813
Rp814
sI270
g4
((lp815
I968
aI969
aI2773
atp816
Rp817
sI271
g4
((lp818
I1931
aI1932
aI1933
aI2135
atp819
Rp820
sI272
g4
((lp821
I597
aI2079
atp822
Rp823
sI273
g4
((lp824
I66
aI76
atp825
Rp826
sI274
g4
((lp827
I952
aI2104
atp828
Rp829
sI275
g4
((lp830
I954
aI1663
atp831
Rp832
sI276
g4
((lp833
I2586
aI2179
aI1018
aI2539
atp834
Rp835
sI277
g4
((lp836
I1352
aI1879
aI1755
aI1951
atp837
Rp838
sI278
g4
((lp839
I1755
aI1380
aI847
aI1879
aI795
aI638
atp840
Rp841
sI279
g4
((lp842
I795
aI1352
aI2186
aI1755
atp843
Rp844
sI280
g4
((lp845
I2168
aI115
aI795
aI847
atp846
Rp847
sI281
g4
((lp848
I497
aI639
atp849
Rp850
sI282
g4
((lp851
I1352
aI2049
aI29
atp852
Rp853
sI283
g4
((lp854
I457
aI1814
atp855
Rp856
sI284
g4
((lp857
I2457
aI1038
aI2319
atp858
Rp859
sI285
g4
((lp860
I2749
aI2622
atp861
Rp862
sI286
g4
((lp863
I1120
aI2084
aI1134
aI1127
atp864
Rp865
sI287
g4
((lp866
I2200
aI1882
atp867
Rp868
sI288
g4
((lp869
I344
aI2195
atp870
Rp871
sI289
g4
((lp872
I1877
aI1263
atp873
Rp874
sI290
g4
((lp875
I1883
aI1815
atp876
Rp877
sI291
g4
((lp878
I2184
aI884
aI1741
atp879
Rp880
sI292
g4
((lp881
I2050
aI1867
aI1739
atp882
Rp883
sI293
g4
((lp884
I2562
aI931
aI2501
aI2151
aI2349
aI1328
aI849
aI2140
aI1565
aI1567
atp885
Rp886
sI294
g4
((lp887
I1824
aI2563
aI1609
aI1610
aI1901
aI113
aI210
aI899
aI1898
atp888
Rp889
sI295
g4
((lp890
I697
aI1826
atp891
Rp892
sI296
g4
((lp893
I1025
aI1026
aI1027
aI171
aI1047
aI2587
aI2588
aI2589
aI2395
aI2621
aI587
aI2646
aI611
aI1164
aI1165
aI1166
aI1167
aI1168
aI1169
aI1170
aI1171
aI1172
aI1173
aI1174
aI1176
aI1177
aI1178
aI794
aI2214
aI2219
aI2755
aI206
aI2780
aI2796
aI2807
aI2818
aI1286
aI1292
aI1298
aI1301
aI1306
aI796
aI798
aI799
aI800
aI1314
aI803
aI804
aI2345
aI811
aI813
aI814
aI815
aI816
aI2355
aI2356
aI2359
aI2361
aI1851
aI2367
aI2368
aI2378
aI2391
aI1370
aI1371
aI1372
aI1373
aI1374
aI1375
aI1376
aI1377
aI1378
aI1379
aI1384
aI1385
aI1386
aI1387
aI1388
aI1389
aI1390
aI1394
aI1395
aI2032
aI1451
aI1457
aI1465
aI1483
aI1008
atp894
Rp895
sI297
g4
((lp896
I2519
aI1154
aI2115
aI2404
aI2534
aI1319
aI2248
aI1579
aI2713
aI2157
aI2733
aI2160
aI2497
aI784
aI2165
aI247
aI2296
aI1017
aI58
aI2279
aI2517
atp897
Rp898
sI298
g4
((lp899
I515
aI220
aI1254
aI143
atp900
Rp901
sI299
g4
((lp902
I1666
aI2020
aI2149
aI1449
aI2474
aI2732
aI14
aI207
aI20
aI2486
aI2213
atp903
Rp904
sI300
g4
((lp905
I1313
aI746
aI1322
aI57
aI1577
atp906
Rp907
sI301
g4
((lp908
I1313
aI2020
aI1573
aI520
aI1577
aI746
aI942
aI57
aI1322
atp909
Rp910
sI302
g4
((lp911
I562
aI683
aI476
aI215
atp912
Rp913
sI303
g4
((lp914
I256
aI1572
aI177
aI2122
aI492
aI493
aI494
aI495
aI1585
aI178
aI179
aI180
aI182
aI183
aI184
aI185
atp915
Rp916
sI304
g4
((lp917
I2552
aI1884
aI1333
aI1967
atp918
Rp919
sI305
g4
((lp920
I2227
aI1469
atp921
Rp922
sI306
g4
((lp923
I2392
aI1956
atp924
Rp925
sI307
g4
((lp926
I683
aI215
atp927
Rp928
sI308
g4
((lp929
I994
aI1007
aI2125
aI1487
aI2128
aI855
aI1275
aI2013
atp930
Rp931
sI309
g4
((lp932
I992
aI550
aI1450
aI1005
aI540
aI541
aI415
atp933
Rp934
sI310
g4
((lp935
I562
aI476
atp936
Rp937
sI311
g4
((lp938
I1291
aI2181
aI237
atp939
Rp940
sI312
g4
((lp941
I1091
aI1204
atp942
Rp943
sI313
g4
((lp944
I736
aI1505
aI2342
aI1543
aI2729
aI2765
aI1844
aI763
aI828
atp945
Rp946
sI314
g4
((lp947
I2672
aI1315
aI1316
aI1446
aI134
aI161
aI1160
aI168
aI139
aI1311
aI593
aI84
aI1432
aI1082
aI2779
aI125
aI165
atp948
Rp949
sI315
g4
((lp950
I993
aI2202
aI1475
aI710
aI231
atp951
Rp952
sI316
g4
((lp953
I763
aI1509
aI2031
atp954
Rp955
sI317
g4
((lp956
I736
aI1505
aI769
aI1509
aI1543
aI2729
aI2604
aI2765
aI341
aI763
aI828
atp957
Rp958
sI318
g4
((lp959
I1481
aI1066
aI268
atp960
Rp961
sI319
g4
((lp962
I101
aI1993
aI2129
aI1018
aI957
aI1502
atp963
Rp964
sI320
g4
((lp965
I1506
aI1475
aI101
aI231
aI1066
aI175
aI1018
aI1083
aI957
atp966
Rp967
sI321
g4
((lp968
I2797
aI701
aI1815
atp969
Rp970
sI322
g4
((lp971
I2736
aI2176
atp972
Rp973
sI323
g4
((lp974
I370
aI674
aI2179
aI1061
aI1022
atp975
Rp976
sI324
g4
((lp977
I1092
aI1781
atp978
Rp979
sI325
g4
((lp980
I99
aI782
atp981
Rp982
sI326
g4
((lp983
I410
aI1964
aI1194
aI1758
atp984
Rp985
sI327
g4
((lp986
I2346
aI2371
atp987
Rp988
sI328
g4
((lp989
I2538
aI2814
atp990
Rp991
sI329
g4
((lp992
I482
aI450
aI1982
aI1837
atp993
Rp994
sI330
g4
((lp995
I2241
aI2242
aI2243
aI1863
aI2091
aI19
aI54
aI1209
aI862
atp996
Rp997
sI331
g4
((lp998
I296
aI810
aI958
atp999
Rp1000
sI332
g4
((lp1001
I2183
aI30
aI31
aI32
aI673
aI675
aI36
aI37
aI38
aI39
aI40
aI41
aI42
aI43
aI44
aI45
aI46
aI47
aI48
aI49
aI50
aI51
aI1972
aI1973
aI1974
aI1975
aI1977
aI1978
aI1979
aI1980
aI581
aI33
aI201
aI35
aI2422
aI2424
aI2425
atp1002
Rp1003
sI333
g4
((lp1004
I362
aI2029
aI2327
atp1005
Rp1006
sI334
g4
((lp1007
I362
aI2029
aI1109
aI2327
atp1008
Rp1009
sI335
g4
((lp1010
I1735
aI621
aI622
aI623
aI624
aI625
aI626
aI627
aI628
aI629
aI630
aI631
aI632
aI508
atp1011
Rp1012
sI336
g4
((lp1013
I621
aI622
aI623
aI624
aI625
aI626
aI627
aI628
aI629
aI630
aI631
aI632
atp1014
Rp1015
sI337
g4
((lp1016
I2235
aI613
atp1017
Rp1018
sI338
g4
((lp1019
I585
aI1123
aI1908
aI829
aI951
atp1020
Rp1021
sI339
g4
((lp1022
I585
aI1871
aI1075
aI1908
aI1095
atp1023
Rp1024
sI340
g4
((lp1025
I768
aI772
aI1478
aI682
aI2767
aI946
aI2069
aI2615
aI1194
atp1026
Rp1027
sI341
g4
((lp1028
I2196
aI1765
aI2815
atp1029
Rp1030
sI342
g4
((lp1031
I1752
aI1746
aI1749
aI2006
atp1032
Rp1033
sI343
g4
((lp1034
I1470
aI455
atp1035
Rp1036
sI344
g4
((lp1037
I1480
aI2054
atp1038
Rp1039
sI345
g4
((lp1040
I2340
aI70
aI1162
aI2097
aI340
aI1016
aI1850
atp1041
Rp1042
sI346
g4
((lp1043
I2340
aI70
aI1162
aI2097
aI340
aI1016
aI1850
atp1044
Rp1045
sI347
g4
((lp1046
I1162
aI340
atp1047
Rp1048
sI348
g4
((lp1049
I1016
aI2097
aI70
atp1050
Rp1051
sI349
g4
((lp1052
I1029
aI2223
atp1053
Rp1054
sI350
g4
((lp1055
I424
aI2058
aI2396
aI1518
aI807
atp1056
Rp1057
sI351
g4
((lp1058
I2016
aI1031
aI1596
aI1716
aI726
aI119
aI2772
aI28
aI1021
atp1059
Rp1060
sI352
g4
((lp1061
I1955
aI196
aI360
aI235
aI1197
aI1096
aI242
aI2431
atp1062
Rp1063
sI353
g4
((lp1064
I1843
aI2347
aI2373
aI2499
aI1181
atp1065
Rp1066
sI354
g4
((lp1067
I2177
aI2466
aI2462
aI2390
atp1068
Rp1069
sI355
g4
((lp1070
I2050
aI1867
atp1071
Rp1072
sI356
g4
((lp1073
I208
aI2218
atp1074
Rp1075
sI357
g4
((lp1076
I1728
aI806
aI907
aI1708
aI2190
aI2800
aI2225
atp1077
Rp1078
sI358
g4
((lp1079
I619
aI2508
atp1080
Rp1081
sI359
g4
((lp1082
I1825
aI1819
aI996
aI2691
atp1083
Rp1084
sI360
g4
((lp1085
I1586
aI483
aI990
aI2771
atp1086
Rp1087
sI361
g4
((lp1088
I1804
aI301
aI310
aI311
atp1089
Rp1090
sI362
g4
((lp1091
I1504
aI2217
aI948
aI2430
atp1092
Rp1093
sI363
g4
((lp1094
I1113
aI427
atp1095
Rp1096
sI364
g4
((lp1097
I1035
aI2341
atp1098
Rp1099
sI365
g4
((lp1100
I779
aI588
aI2802
aI1845
aI921
aI154
atp1101
Rp1102
sI366
g4
((lp1103
I1817
aI411
aI724
aI100
aI953
atp1104
Rp1105
sI367
g4
((lp1106
I2817
aI2180
aI406
aI2182
aI2567
aI1803
aI653
aI654
aI1295
aI2582
aI2717
aI2309
aI1570
aI1827
aI1959
aI1459
aI193
aI842
aI474
aI2402
aI2026
aI423
aI241
aI2794
atp1107
Rp1108
sI368
g4
((lp1109
I490
aI2141
atp1110
Rp1111
sI369
g4
((lp1112
I1962
aI1212
atp1113
Rp1114
sI370
g4
((lp1115
I434
aI430
atp1116
Rp1117
sI371
g4
((lp1118
I841
aI2365
aI838
aI2265
atp1119
Rp1120
sI372
g4
((lp1121
I2432
aI3
aI2565
aI6
aI9
aI23
aI12
aI15
aI1552
aI786
aI1557
aI2071
aI1562
aI1563
aI26
aI197
aI1064
aI938
aI1067
aI941
aI1839
aI52
aI1589
aI1591
aI2233
aI60
aI2238
aI65
aI1602
aI69
aI2247
aI73
aI1801
aI2261
aI2510
aI79
aI81
aI1614
aI214
aI2263
aI1243
aI94
aI2245
aI2418
aI2236
aI2546
aI21
aI1791
atp1122
Rp1123
sI373
g4
((lp1124
I592
aI601
aI678
atp1125
Rp1126
sI374
g4
((lp1127
I2043
aI647
aI2011
aI2577
aI757
aI1400
aI443
atp1128
Rp1129
sI375
g4
((lp1130
I2033
aI1099
aI2731
aI1985
atp1131
Rp1132
sI376
g4
((lp1133
I1368
aI641
aI1482
atp1134
Rp1135
sI377
g4
((lp1136
I1915
aI844
atp1137
Rp1138
sI378
g4
((lp1139
I2153
aI901
aI2518
aI229
atp1140
Rp1141
sI379
g4
((lp1142
I1569
aI2730
aI269
aI2110
atp1143
Rp1144
sI380
g4
((lp1145
I2172
aI1750
aI2134
aI1821
atp1146
Rp1147
sI381
g4
((lp1148
I2152
aI1784
aI1876
aI743
atp1149
Rp1150
sI382
g4
((lp1151
I1594
aI1597
aI1830
atp1152
Rp1153
sI383
g4
((lp1154
I2055
aI1800
aI1289
aI906
aI1804
aI1550
aI530
aI537
aI964
aI2461
aI2463
aI2722
aI1190
aI937
aI301
aI945
aI310
aI311
aI138
aI451
aI836
aI2742
aI2633
aI205
aI211
aI1806
aI727
aI1624
aI1892
aI2400
aI891
aI484
aI2408
aI1259
aI2173
aI723
aI889
aI890
aI1019
aI1660
aI2557
aI1023
atp1155
Rp1156
sI384
g4
((lp1157
I1296
aI2618
aI2381
atp1158
Rp1159
sI385
g4
((lp1160
I706
aI1865
aI1914
aI1909
aI439
aI2488
aI2521
aI378
aI2525
aI2206
atp1161
Rp1162
sI386
g4
((lp1163
I2488
aI2521
atp1164
Rp1165
sI387
g4
((lp1166
I1914
aI1909
atp1167
Rp1168
sI388
g4
((lp1169
I2400
aI2722
atp1170
Rp1171
sI389
g4
((lp1172
I451
aI2055
aI1550
aI1624
aI889
aI890
aI891
aI2461
aI2463
atp1173
Rp1174
sI390
g4
((lp1175
I2400
aI2722
aI937
aI138
aI1259
aI723
atp1176
Rp1177
sI391
g4
((lp1178
I138
aI723
atp1179
Rp1180
sI392
g4
((lp1181
I2408
aI1019
aI1806
aI1190
atp1182
Rp1183
sI393
g4
((lp1184
I836
aI1289
aI906
aI1892
aI537
atp1185
Rp1186
sI394
g4
((lp1187
I1800
aI530
aI964
aI2173
atp1188
Rp1189
sI395
g4
((lp1190
I451
aI484
aI2055
aI937
aI205
aI1624
aI1019
atp1191
Rp1192
sI396
g4
((lp1193
I2400
aI2722
aI1892
aI1190
aI945
aI1660
aI2557
atp1194
Rp1195
sI397
g4
((lp1196
I2408
aI1289
atp1197
Rp1198
sI398
g4
((lp1199
I360
aI1197
aI2431
atp1200
Rp1201
sI399
g4
((lp1202
I922
aI2756
aI2759
atp1203
Rp1204
sI400
g4
((lp1205
I1163
aI2494
aI479
atp1206
Rp1207
sI401
g4
((lp1208
I1280
aI516
aI1285
aI1158
aI652
aI528
aI2066
aI2067
aI346
aI1182
aI2600
aI1456
aI328
aI308
aI194
aI1992
aI1737
aI2379
aI2380
aI1870
aI888
aI1494
aI1498
aI731
aI733
aI734
aI735
aI737
aI2018
aI2403
aI1511
aI369
aI759
aI760
aI1274
atp1209
Rp1210
sI402
g4
((lp1211
I705
aI1915
aI641
aI1482
aI844
aI1368
aI2075
atp1212
Rp1213
sI403
g4
((lp1214
I609
aI998
aI2537
aI845
aI848
aI991
atp1215
Rp1216
sI404
g4
((lp1217
I278
aI1064
aI2637
aI366
aI272
aI147
aI246
aI1852
atp1218
Rp1219
sI405
g4
((lp1220
I2112
aI1497
aI1880
atp1221
Rp1222
sI406
g4
((lp1223
I772
aI997
aI1194
aI1964
aI410
aI1758
atp1224
Rp1225
sI407
g4
((lp1226
I1114
aI1111
atp1227
Rp1228
sI408
g4
((lp1229
I1087
aI951
aI861
aI1062
aI1903
atp1230
Rp1231
sI409
g4
((lp1232
I1072
aI2530
aI1060
aI829
aI413
atp1233
Rp1234
sI410
g4
((lp1235
I282
aI2357
aI1686
atp1236
Rp1237
sI411
g4
((lp1238
I848
aI998
aI991
atp1239
Rp1240
sI412
g4
((lp1241
I1033
aI403
aI805
aI1041
atp1242
Rp1243
sI413
g4
((lp1244
I2211
aI2701
aI1902
aI839
atp1245
Rp1246
sI414
g4
((lp1247
I650
aI1507
atp1248
Rp1249
sI415
g4
((lp1250
I1401
aI1453
aI486
atp1251
Rp1252
sI416
g4
((lp1253
I2523
aI2353
aI1713
aI776
aI2605
aI1326
aI1327
aI1144
aI1651
aI2782
aI1142
aI2520
aI2527
aI2524
aI2526
aI1151
atp1254
Rp1255
sI417
g4
((lp1256
I1337
aI2234
atp1257
Rp1258
sI418
g4
((lp1259
I1896
aI1161
aI1923
aI1918
atp1260
Rp1261
sI419
g4
((lp1262
I2209
aI2572
atp1263
Rp1264
sI420
g4
((lp1265
I2628
aI244
aI236
atp1266
Rp1267
sI421
g4
((lp1268
I256
aI166
aI583
aI172
aI1264
aI1779
aI1332
aI1336
atp1269
Rp1270
sI422
g4
((lp1271
I1842
aI2407
atp1272
Rp1273
sI423
g4
((lp1274
I2210
aI2022
aI266
aI300
aI2222
aI2224
aI339
aI1335
aI831
atp1275
Rp1276
sI424
g4
((lp1277
I2768
aI2051
atp1278
Rp1279
sI425
g4
((lp1280
I224
aI2401
aI1510
atp1281
Rp1282
sI426
g4
((lp1283
I2166
aI243
aI1906
aI239
aI1904
aI1905
aI2162
aI1907
aI1910
aI1911
aI1566
atp1284
Rp1285
sI427
g4
((lp1286
I2264
aI1916
atp1287
Rp1288
sI428
g4
((lp1289
I1953
aI2596
aI657
atp1290
Rp1291
sI429
g4
((lp1292
I513
aI903
aI392
aI1294
aI402
aI659
aI660
aI661
aI662
aI429
aI435
aI950
aI961
aI963
aI965
aI967
aI971
aI972
aI973
aI974
aI975
aI976
aI977
aI978
aI979
aI980
aI981
aI983
aI985
aI986
aI987
aI988
aI658
aI915
aI375
aI404
aI380
atp1293
Rp1294
sI430
g4
((lp1295
I2262
aI1646
atp1296
Rp1297
sI431
g4
((lp1298
I513
aI903
aI392
aI1294
aI402
aI659
aI660
aI661
aI662
aI429
aI435
aI961
aI963
aI965
aI967
aI971
aI972
aI973
aI974
aI975
aI976
aI977
aI978
aI979
aI980
aI981
aI983
aI985
aI986
aI987
aI988
aI658
aI915
aI375
aI404
aI380
atp1299
Rp1300
sI432
g4
((lp1301
I2207
aI254
aI1607
atp1302
Rp1303
sI433
g4
((lp1304
I260
aI1100
atp1305
Rp1306
sI434
g4
((lp1307
I2465
aI1717
atp1308
Rp1309
sI435
g4
((lp1310
I751
aI413
aI1060
aI1062
aI681
aI939
aI1072
aI1075
aI951
aI829
aI1087
aI1095
aI585
aI1612
aI1871
aI2531
aI861
aI608
aI2530
aI1123
aI748
aI750
aI1903
aI752
aI753
aI754
aI755
aI756
atp1311
Rp1312
sI436
g4
((lp1313
I385
aI2030
aI2169
atp1314
Rp1315
sI437
g4
((lp1316
I1297
aI133
aI510
aI2489
atp1317
Rp1318
sI438
g4
((lp1319
I1928
aI505
aI1246
aI1855
atp1320
Rp1321
sI439
g4
((lp1322
I736
aI1505
aI162
aI1509
aI2342
aI1543
aI716
aI769
aI2604
aI2765
aI2031
aI2512
aI1844
aI341
aI2729
aI763
aI828
atp1323
Rp1324
sI440
g4
((lp1325
I241
aI474
aI2402
aI406
aI423
atp1326
Rp1327
sI441
g4
((lp1328
I2170
aI522
aI2678
aI2503
atp1329
Rp1330
sI442
g4
((lp1331
I2512
aI162
aI716
atp1332
Rp1333
sI443
g4
((lp1334
I736
aI1505
aI2765
aI2729
atp1335
Rp1336
sI444
g4
((lp1337
I251
aI1860
aI590
aI2382
atp1338
Rp1339
sI445
g4
((lp1340
I1668
aI1722
aI1916
aI2154
atp1341
Rp1342
sI446
g4
((lp1343
I896
aI1672
aI1673
aI1674
aI2574
aI2089
aI2090
aI2092
aI2094
aI2095
aI2096
aI2098
aI2363
aI2364
aI846
aI471
aI475
aI1399
aI1404
aI893
aI894
aI895
atp1344
Rp1345
sI447
g4
((lp1346
I896
aI1672
aI1673
aI1674
aI908
aI2574
aI2089
aI2090
aI2092
aI2094
aI2095
aI2096
aI2098
aI2363
aI2364
aI456
aI846
aI471
aI475
aI2781
aI2784
aI1776
aI1399
aI1404
aI893
aI894
aI895
atp1347
Rp1348
sI448
g4
((lp1349
I286
aI55
aI1719
aI1214
aI919
atp1350
Rp1351
sI449
g4
((lp1352
I2016
aI2772
aI1596
aI1021
atp1353
Rp1354
sI450
g4
((lp1355
I1792
atp1356
Rp1357
sI451
g4
((lp1358
I76
aI1774
atp1359
Rp1360
sI452
g4
((lp1361
tp1362
Rp1363
sI453
g4
((lp1364
I1773
aI970
aI989
aI1661
aI426
atp1365
Rp1366
sI454
g4
((lp1367
I672
aI1249
aI1108
aI1126
atp1368
Rp1369
sI455
g4
((lp1370
I192
aI1777
atp1371
Rp1372
sI456
g4
((lp1373
I1160
aI593
aI2429
atp1374
Rp1375
sI457
g4
((lp1376
I1590
aI1256
aI2442
aI2763
aI2495
aI1454
aI591
aI2760
aI469
aI534
aI1695
aI412
aI1258
aI511
atp1377
Rp1378
sI458
g4
((lp1379
I1987
aI617
aI1291
aI237
aI2000
aI887
atp1380
Rp1381
sI459
g4
((lp1382
I1920
aI130
aI1541
aI2571
aI1938
aI2068
aI1946
aI2459
aI2719
aI1582
aI1206
aI825
aI834
aI68
aI1606
aI1864
aI1098
aI77
aI718
aI212
aI607
aI868
aI487
aI361
aI1895
aI1261
aI1648
aI1009
aI2674
aI1396
aI1912
aI124
atp1383
Rp1384
sI460
g4
((lp1385
I1858
aI1859
aI1622
aI1625
aI1627
aI1628
atp1386
Rp1387
sI461
g4
((lp1388
I930
aI1553
aI88
aI91
aI924
aI927
atp1389
Rp1390
sI462
g4
((lp1391
I1858
aI1859
aI1622
aI1625
aI1627
aI1628
aI63
atp1392
Rp1393
sI463
g4
((lp1394
I930
aI63
aI1553
aI88
aI91
aI924
aI927
atp1395
Rp1396
sI464
g4
((lp1397
I129
aI163
aI7
aI141
aI270
aI16
aI499
aI117
aI150
aI24
atp1398
Rp1399
sI465
g4
((lp1400
I129
aI4
aI150
aI7
aI1546
aI13
aI270
aI16
aI22
aI24
aI157
aI163
aI181
aI10
aI204
aI141
aI98
aI189
aI499
aI117
aI122
aI1281
atp1401
Rp1402
sI466
g4
((lp1403
I204
aI189
atp1404
Rp1405
sI467
g4
((lp1406
I1281
aI157
atp1407
Rp1408
sI468
g4
((lp1409
I10
aI4
aI181
aI22
aI13
atp1410
Rp1411
sI469
g4
((lp1412
I98
aI1546
aI4
aI181
atp1413
Rp1414
sI470
g4
((lp1415
I16
aI24
aI270
aI7
atp1416
Rp1417
sI471
g4
((lp1418
I2106
aI373
aI1822
aI111
atp1419
Rp1420
sI472
g4
((lp1421
I129
aI98
aI122
atp1422
Rp1423
sI473
g4
((lp1424
I2114
aI1539
atp1425
Rp1426
sI474
g4
((lp1427
I104
aI529
aI2388
aI496
atp1428
Rp1429
sI475
g4
((lp1430
I1886
aI110
atp1431
Rp1432
sI476
g4
((lp1433
I1514
aI2575
atp1434
Rp1435
sI477
g4
((lp1436
I2051
aI1764
aI2768
aI2417
aI1272
aI1277
aI1854
atp1437
Rp1438
sI478
g4
((lp1439
I432
aI2545
aI1766
aI225
atp1440
Rp1441
sI479
g4
((lp1442
I788
aI789
aI790
aI791
aI792
aI793
aI1145
aI1601
aI1233
aI1234
aI1235
aI2775
aI480
aI635
aI636
aI2805
aI2806
aI2808
aI2809
aI2810
aI2811
aI2812
aI637
atp1443
Rp1444
sI480
g4
((lp1445
I1835
aI1796
aI2438
aI135
aI136
aI1004
aI1036
aI2498
aI1809
aI19
aI1812
aI857
aI1473
aI2077
aI1115
aI862
aI2726
aI2727
aI1834
aI2091
aI858
aI302
aI1003
aI305
aI1195
aI54
aI2103
aI1209
aI1084
aI2239
aI859
aI2241
aI2242
aI2243
aI1863
aI586
aI1101
aI2639
aI337
aI2642
aI2643
aI2644
aI2645
aI854
aI2648
aI2649
aI2650
aI2651
aI860
aI2653
aI2654
aI2655
aI2528
aI327
aI1893
aI1000
aI1001
aI1002
aI2667
aI2668
aI2798
aI856
aI371
aI2676
aI2677
aI1014
aI1300
aI853
atp1446
Rp1447
sI481
g4
((lp1448
I881
aI882
aI883
atp1449
Rp1450
sI482
g4
((lp1451
I2178
aI468
aI2078
atp1452
Rp1453
sI483
g4
((lp1454
I2656
aI2720
aI226
aI741
aI1767
aI2507
aI2707
aI2038
aI1848
aI2721
aI2215
aI1669
atp1455
Rp1456
sI484
g4
((lp1457
I246
aI2637
aI366
aI272
aI147
aI278
aI1852
atp1458
Rp1459
sI485
g4
((lp1460
I880
aI878
aI879
atp1461
Rp1462
sI486
g4
((lp1463
I1485
aI467
aI949
aI1558
aI1049
aI1885
atp1464
Rp1465
sI487
g4
((lp1466
I131
aI1156
aI1287
aI1811
aI1187
aI1828
aI1829
aI304
aI1587
aI307
aI1846
aI313
aI1853
aI330
aI332
aI333
aI334
aI335
aI336
aI209
aI338
aI2739
aI107
aI102
aI2769
aI105
aI106
aI103
aI108
aI109
aI2679
aI1273
aI1786
aI1787
atp1467
Rp1468
sI488
g4
((lp1469
I1665
aI289
aI1619
aI297
aI121
atp1470
Rp1471
sI489
g4
((lp1472
I473
atp1473
Rp1474
sI490
g4
((lp1475
I473
atp1476
Rp1477
sI491
g4
((lp1478
I1121
aI1503
atp1479
Rp1480
sI492
g4
((lp1481
I1772
aI598
atp1482
Rp1483
sI493
g4
((lp1484
I8
aI2443
aI2189
aI2446
aI2456
aI2453
aI1816
aI2464
aI2723
aI2348
aI1629
aI2354
aI821
aI1976
aI442
aI2369
aI2372
aI1349
aI711
aI329
aI2764
aI2445
aI1745
aI2003
aI1492
aI1239
aI1658
aI95
aI995
aI1517
aI1655
aI250
aI1659
atp1485
Rp1486
sI494
g4
((lp1487
I1035
aI817
aI867
aI2484
aI2485
atp1488
Rp1489
sI495
g4
((lp1490
I612
aI1731
aI1732
aI1733
atp1491
Rp1492
sI496
g4
((lp1493
I1121
aI365
aI2737
aI2259
aI2747
aI1503
atp1494
Rp1495
sI497
g4
((lp1496
I2232
aI167
atp1497
Rp1498
sI498
g4
((lp1499
I929
aI999
aI1320
aI1321
aI777
aI1710
aI1841
aI1684
aI725
aI1961
aI1948
atp1500
Rp1501
sI499
g4
((lp1502
I1472
aI1551
atp1503
Rp1504
sI500
g4
((lp1505
I2409
aI1251
aI2389
atp1506
Rp1507
sI501
g4
((lp1508
I56
aI2360
aI67
aI719
aI1687
atp1509
Rp1510
sI502
g4
((lp1511
I354
aI347
aI1957
aI343
atp1512
Rp1513
sI503
g4
((lp1514
I1849
aI1857
atp1515
Rp1516
sI504
g4
((lp1517
I1312
aI2147
aI709
aI1770
aI1323
aI2028
aI1265
aI2083
aI1110
aI2007
aI920
aI188
atp1518
Rp1519
sI505
g4
((lp1520
I2056
aI1670
atp1521
Rp1522
sI506
g4
((lp1523
I400
aI257
aI2724
atp1524
Rp1525
sI507
g4
((lp1526
I377
aI708
aI2758
atp1527
Rp1528
sI508
g4
((lp1529
I72
aI140
aI1267
aI1721
aI1785
aI2042
aI2203
atp1530
Rp1531
sI509
g4
((lp1532
I1890
aI1447
aI2344
aI2226
aI245
aI1950
atp1533
Rp1534
sI510
g4
((lp1535
I904
aI1367
aI1076
aI1077
aI1078
aI1079
aI1080
atp1536
Rp1537
sI511
g4
((lp1538
I778
aI948
atp1539
Rp1540
sI512
g4
((lp1541
I2560
aI2561
aI2569
aI2583
aI1548
aI2578
aI2579
aI1559
aI2584
aI2591
aI2593
aI2594
aI1462
aI1468
aI702
aI2377
aI1231
aI721
aI1748
aI1615
aI222
aI223
aI1555
aI2554
aI2555
aI2556
aI2558
aI2559
atp1542
Rp1543
sI513
g4
((lp1544
I2002
aI521
aI1065
aI1522
aI2770
aI441
aI249
aI1726
atp1545
Rp1546
sI514
g4
((lp1547
I773
aI774
aI2119
aI2120
aI2249
aI722
aI633
aI634
atp1548
Rp1549
sI515
g4
((lp1550
I384
aI386
aI387
aI389
aI390
aI391
aI393
aI394
aI2059
aI396
aI1934
aI399
aI1939
aI2070
aI2073
aI1947
aI395
aI1486
aI398
aI350
aI351
aI352
aI353
aI355
aI357
aI358
aI2548
aI382
aI383
atp1551
Rp1552
sI516
g4
((lp1553
I1593
aI1479
aI238
aI2383
atp1554
Rp1555
sI517
g4
((lp1556
I2009
aI780
aI959
atp1557
Rp1558
sI518
g4
((lp1559
I485
aI2198
atp1560
Rp1561
sI519
g4
((lp1562
I472
aI2619
aI1900
aI477
atp1563
Rp1564
sI520
g4
((lp1565
I2017
aI2082
aI2107
aI1729
aI1575
aI1768
aI1753
aI2124
aI1762
aI240
aI2065
aI2004
aI1657
aI2136
aI2137
aI1242
aI2139
aI1240
aI2138
aI1759
atp1566
Rp1567
sI521
g4
((lp1568
I1778
aI2167
aI255
atp1569
Rp1570
sI522
g4
((lp1571
I1467
aI1069
aI2019
aI2741
aI2041
aI602
aI603
aI604
atp1572
Rp1573
sI523
g4
((lp1574
I1913
aI1954
aI348
aI605
aI2205
atp1575
Rp1576
sI524
g4
((lp1577
I1805
aI414
aI1927
atp1578
Rp1579
sI525
g4
((lp1580
I1692
aI1924
aI1694
atp1581
Rp1582
sI526
g4
((lp1583
I1930
aI2221
aI1935
atp1584
Rp1585
sI527
g4
((lp1586
I417
aI1925
aI1693
atp1587
Rp1588
sI528
g4
((lp1589
I2048
aI770
aI874
aI174
aI342
aI2044
aI766
atp1590
Rp1591
sI529
g4
((lp1592
I700
aI2623
atp1593
Rp1594
sI530
g4
((lp1595
I1954
aI1467
aI1913
aI602
aI603
aI348
aI605
atp1596
Rp1597
sI531
g4
((lp1598
I1536
aI1793
aI2178
aI1771
aI1540
aI11
aI1936
aI25
aI923
aI2078
aI1056
aI1455
aI2227
aI1720
aI59
aI2620
aI1469
aI2627
aI1869
aI468
aI1493
aI729
aI738
aI1124
aI1131
aI758
aI1783
aI504
aI2171
aI1148
aI1149
aI2174
atp1599
Rp1600
sI532
g4
((lp1601
I644
aI1714
aI1044
aI1279
atp1602
Rp1603
sI533
g4
((lp1604
I1034
aI1268
aI2414
atp1605
Rp1606
sI534
g4
((lp1607
I640
aI826
atp1608
Rp1609
sI535
g4
((lp1610
I512
aI837
aI935
aI1130
aI1963
aI2260
atp1611
Rp1612
sI536
g4
((lp1613
I401
aI74
aI2447
atp1614
Rp1615
sI537
g4
((lp1616
I2652
aI1100
atp1617
Rp1618
sI538
g4
((lp1619
I83
aI2046
atp1620
Rp1621
sI539
g4
((lp1622
I744
aI2435
aI2436
aI616
aI2441
aI620
aI589
aI2434
aI2440
aI2426
aI2427
aI2428
atp1623
Rp1624
sI540
g4
((lp1625
I2168
aI2081
atp1626
Rp1627
sI541
g4
((lp1628
I809
aI430
atp1629
Rp1630
sI542
g4
((lp1631
I1921
aI771
aI776
aI649
aI1418
aI195
aI533
aI1942
aI156
aI1184
aI1189
aI1713
aI2605
aI1326
aI1327
aI2353
aI1651
aI1715
aI2743
aI1983
aI1856
aI1089
aI1731
aI1732
aI1733
aI198
aI1351
aI1996
aI213
aI1238
aI2520
aI2523
aI2524
aI2526
aI2527
aI864
aI2782
aI612
aI230
aI2792
aI745
aI2666
aI491
aI1262
aI1775
aI1011
aI1780
aI885
aI1142
aI762
aI1215
aI252
aI1151
atp1632
Rp1633
sI543
g4
((lp1634
I80
aI2635
aI1757
aI1789
atp1635
Rp1636
sI544
g4
((lp1637
I2201
aI1308
atp1638
Rp1639
sI545
g4
((lp1640
I2740
aI1919
atp1641
Rp1642
sI546
g4
((lp1643
I164
aI1833
aI1802
aI1520
aI1464
aI447
aI671
atp1644
Rp1645
sI547
g4
((lp1646
I1545
aI1650
atp1647
Rp1648
sI548
g4
((lp1649
I152
aI2161
aI1723
aI1751
aI279
atp1650
Rp1651
sI549
g4
((lp1652
I1984
aI1989
aI1990
aI1564
aI1997
aI764
atp1653
Rp1654
sI550
g4
((lp1655
I2164
aI2652
aI1180
aI2212
aI2366
atp1656
Rp1657
sI551
g4
((lp1658
I82
aI1878
aI1742
atp1659
Rp1660
sI552
g4
((lp1661
I243
aI239
aI1906
aI1907
aI1910
aI1911
atp1662
Rp1663
sI553
g4
((lp1664
I1784
aI2033
aI2730
atp1665
Rp1666
sI554
g4
((lp1667
I728
aI600
aI421
atp1668
Rp1669
sI555
g4
((lp1670
I1736
aI1476
aI1671
atp1671
Rp1672
sI556
g4
((lp1673
I1888
aI2657
atp1674
Rp1675
sI557
g4
((lp1676
I1576
aI2776
atp1677
Rp1678
sI558
g4
((lp1679
I1086
aI910
atp1680
Rp1681
sI559
g4
((lp1682
I2076
aI2126
aI870
aI1621
atp1683
Rp1684
sI560
g4
((lp1685
I1288
aI482
atp1686
Rp1687
sI561
g4
((lp1688
I2406
aI902
aI2023
atp1689
Rp1690
sI562
g4
((lp1691
I2049
aI29
atp1692
Rp1693
sI563
g4
((lp1694
I2049
aI642
aI132
aI2311
aI2186
aI2447
aI900
aI795
aI29
aI1951
aI802
aI2601
aI428
aI1352
aI847
aI1879
aI228
aI1755
aI1380
aI871
aI115
aI2037
aI2168
aI638
atp1695
Rp1696
sI564
g4
((lp1697
I89
aI1452
atp1698
Rp1699
sI565
g4
((lp1700
I2549
aI582
atp1701
Rp1702
sI566
g4
((lp1703
I2049
aI642
aI132
aI2186
aI428
aI2168
atp1704
Rp1705
sI567
g4
((lp1706
I228
aI2311
aI2447
aI115
aI2037
aI29
atp1707
Rp1708
sI568
g4
((lp1709
I2113
aI807
aI2111
atp1710
Rp1711
sI569
g4
((lp1712
I428
aI642
aI132
aI2037
atp1713
Rp1714
sI570
g4
((lp1715
I898
aI2786
atp1716
Rp1717
sI571
g4
((lp1718
I1073
aI523
aI2012
aI2229
aI2415
atp1719
Rp1720
sI572
g4
((lp1721
I2280
aI1309
aI518
atp1722
Rp1723
sI573
g4
((lp1724
I1584
aI2612
atp1725
Rp1726
sI574
g4
((lp1727
I2481
aI1338
aI1797
aI2471
atp1728
Rp1729
sI575
g4
((lp1730
I1808
aI2450
aI2506
aI2774
aI1278
atp1731
Rp1732
sI576
g4
((lp1733
I1312
aI2147
aI1770
aI2083
aI2007
aI920
aI188
atp1734
Rp1735
sI577
g4
((lp1736
I1312
aI1770
aI2083
aI188
aI2007
atp1737
Rp1738
sI578
g4
((lp1739
I137
aI2341
aI918
atp1740
Rp1741
sI579
g4
((lp1742
I1159
aI1960
aI1965
aI1709
aI144
aI1649
aI2455
aI698
atp1743
Rp1744
sI580
g4
((lp1745
I2455
aI1159
aI407
aI2188
aI1965
aI144
aI1556
aI535
aI1688
aI431
aI2718
aI418
aI420
aI2469
aI1649
aI1704
aI1709
aI2607
aI2352
aI818
aI698
aI584
aI1103
aI2142
aI2532
aI615
aI2793
aI1516
aI1647
aI1960
aI2047
atp1746
Rp1747
sI581
g4
((lp1748
I202
aI2163
aI1820
aI677
atp1749
Rp1750
sI582
g4
((lp1751
I1129
aI1250
aI1307
atp1752
Rp1753
sI583
g4
((lp1754
I176
aI1724
aI2748
aI1324
atp1755
Rp1756
sI584
g4
((lp1757
I1945
aI1941
aI1949
atp1758
Rp1759
sI585
g4
((lp1760
I1088
aI2437
aI284
aI1899
aI1999
aI1146
aI1020
aI2746
aI2399
atp1761
Rp1762
sI586
g4
((lp1763
I1994
aI1578
atp1764
Rp1765
sI587
g4
((lp1766
I1712
aI1010
atp1767
Rp1768
sI588
g4
((lp1769
I2416
aI376
aI186
aI1200
atp1770
Rp1771
sI589
g4
((lp1772
I1968
aI642
atp1773
Rp1774
sI590
g4
((lp1775
I149
aI1271
atp1776
Rp1777
sI591
g4
((lp1778
I1284
aI1623
atp1779
Rp1780
sI592
g4
((lp1781
I1952
aI160
aI226
aI419
aI2052
aI2725
aI2086
aI2001
aI648
aI1769
aI2060
aI1521
aI926
aI2074
aI158
atp1782
Rp1783
sI593
g4
((lp1784
I2688
aI2689
aI2690
aI128
aI2705
aI1970
aI2680
aI2681
aI2682
aI2684
aI2686
aI2687
atp1785
Rp1786
sI594
g4
((lp1787
I128
aI123
aI2085
aI458
aI1943
aI2706
aI17
aI18
aI2709
aI2710
aI2711
aI2712
aI2714
aI2715
aI2716
atp1788
Rp1789
sI595
g4
((lp1790
I1570
aI2180
aI2309
aI2026
aI842
aI1295
aI2582
aI2717
atp1791
Rp1792
sI596
g4
((lp1793
I1348
aI502
atp1794
Rp1795
sI597
g4
((lp1796
I1460
aI2460
atp1797
Rp1798
sI598
g4
((lp1799
I89
aI2194
aI1452
aI1106
aI445
atp1800
Rp1801
sI599
g4
((lp1802
I2064
aI281
aI1747
atp1803
Rp1804
sI600
g4
((lp1805
I2121
aI2374
atp1806
Rp1807
sI601
g4
((lp1808
I2197
aI1402
aI5
aI1199
atp1809
Rp1810
sI602
g4
((lp1811
I1201
aI1466
aI1499
atp1812
Rp1813
sI603
g4
((lp1814
I769
aI2604
aI341
aI2031
atp1815
Rp1816
sI604
g4
((lp1817
I142
aI367
atp1818
Rp1819
sI605
g4
((lp1820
I1788
aI1474
aI2204
aI2597
aI1353
atp1821
Rp1822
sI606
g4
((lp1823
I2080
aI1063
atp1824
Rp1825
sI607
g4
((lp1826
I835
aI2116
aI1269
atp1827
Rp1828
sI608
g4
((lp1829
I2795
aI1501
atp1830
Rp1831
sI609
g4
((lp1832
I2121
aI2795
aI1501
aI2374
atp1833
Rp1834
sI610
g4
((lp1835
I2100
aI292
atp1836
Rp1837
sI611
g4
((lp1838
I2036
aI2804
atp1839
Rp1840
sI612
g4
((lp1841
I2080
aI2470
aI646
aI1448
aI2473
aI527
aI273
aI1491
aI1718
aI2671
atp1842
Rp1843
sI613
g4
((lp1844
I115
aI643
atp1845
Rp1846
sI614
g4
((lp1847
I87
aI259
aI1743
atp1848
Rp1849
s.