(dp0
I1
F73.86
sI2
F25.87
sI3
F25.87
sI4
F25.35
sI5
F25.87
sI6
F71.91
sI7
F32.96
sI8
F41.97
sI9
F1.98
sI10
F27.47
sI11
F25.87
sI12
F26.98
sI13
F2.53
sI14
F654.44
sI15
F79.98
sI16
F9.07
sI17
F27.86
sI18
F25.87
sI19
F25.87
sI20
F27.86
sI21
F15.38
sI22
F10.39
sI23
F30.96
sI24
F3.98
sI25
F14.98
sI26
F24.98
sI27
F29.98
sI28
F6.94
sI29
F14.96
sI30
F21.94
sI31
F10.95
sI32
F207.64
sI33
F45.96
sI34
F114.77
sI35
F11.96
sI36
F59.97
sI37
F22.38
sI38
F49.91
sI39
F39.92
sI40
F36.85
sI41
F47.78
sI42
F81.88
sI43
F47.92
sI44
F7.98
sI45
F11.97
sI46
F9.98
sI47
F20.97
sI48
F30.55
sI49
F20.97
sI50
F1.98
sI51
F13.98
sI52
F22.98
sI53
F21.98
sI54
F18.98
sI55
F1.98
sI56
F7.98
sI57
F32.41
sI58
F2.97
sI59
F16.97
sI60
F7.98
sI61
F13.98
sI62
F11.98
sI63
F23.88
sI64
F21.89
sI65
F23.88
sI66
F19.9
sI67
F25.87
sI68
F27.86
sI69
F23.88
sI70
F23.88
sI71
F25.87
sI72
F25.87
sI73
F24.97
sI74
F22.98
sI75
F4.95
sI76
F2.97
sI77
F7.98
sI78
F63.91
sI79
F47.88
sI80
F39.98
sI81
F45.92
sI82
F28.96
sI83
F69.98
sI84
F14.7
sI85
F7.92
sI86
F15.96
sI87
F26.98
sI88
F15.98
sI89
F19.98
sI90
F89.98
sI91
F89.98
sI92
F119.97
sI93
F19.98
sI94
F13.98
sI95
F9.98
sI96
F29.98
sI97
F41.96
sI98
F1.98
sI99
F34.95
sI100
F4.18
sI101
F24.98
sI102
F22.96
sI103
F5.98
sI104
F29.98
sI105
F19.98
sI106
F29.98
sI107
F14.98
sI108
F29.98
sI109
F39.96
sI110
F49.98
sI111
F22.98
sI112
F18.98
sI113
F26.98
sI114
F44.96
sI115
F6.98
sI116
F12.98
sI117
F29.98
sI118
F34.97
sI119
F59.98
sI120
F16.98
sI121
F79.98
sI122
F24.98
sI123
F94.96
sI124
F1.98
sI125
F59.98
sI126
F26.98
sI127
F18.98
sI128
F12.98
sI129
F24.96
sI130
F24.98
sI131
F7.97
sI132
F3.96
sI133
F44.97
sI134
F19.98
sI135
F19.98
sI136
F11.98
sI137
F999.98
sI138
F18.96
sI139
F11.98
sI140
F4.98
sI141
F1.98
sI142
F29.97
sI143
F34.98
sI144
F50.95
sI145
F13.98
sI146
F22.97
sI147
F19.98
sI148
F42.97
sI149
F15.98
sI150
F24.98
sI151
F7.98
sI152
F18.98
sI153
F8.98
sI154
F2.98
sI155
F33.28
sI156
F82.91
sI157
F89.98
sI158
F1.98
sI159
F73.93
sI160
F2.98
sI161
F85.4
sI162
F300.63
sI163
F4.98
sI164
F69.97
sI165
F105.88
sI166
F40.44
sI167
F2.73
sI168
F36.97
sI169
F13.98
sI170
F21.98
sI171
F3.98
sI172
F18.95
sI173
F8.98
sI174
F799.98
sI175
F25.98
sI176
F17.97
sI177
F84.94
sI178
F6.95
sI179
F3.98
sI180
F12.86
sI181
F11.97
sI182
F29.95
sI183
F7.98
sI184
F4.47
sI185
F72.95
sI186
F21.96
sI187
F7.98
sI188
F73.26
sI189
F41.97
sI190
F19.98
sI191
F3.98
sI192
F49.98
sI193
F39.96
sI194
F29.97
sI195
F30.98
sI196
F39.98
sI197
F13.98
sI198
F6.98
sI199
F6.98
sI200
F59.98
sI201
F2.97
sI202
F15.98
sI203
F4.97
sI204
F11.98
sI205
F89.98
sI206
F6.99
sI207
F19.96
sI208
F14.98
sI209
F2.98
sI210
F1.98
sI211
F14.97
sI212
F79.96
sI213
F3.97
sI214
F7.98
sI215
F41.95
sI216
F18.98
sI217
F6.93
sI218
F39.97
sI219
F40.97
sI220
F59.97
sI221
F94.95
sI222
F21.98
sI223
F29.97
sI224
F5.96
sI225
F16.98
sI226
F89.95
sI227
F110.9
sI228
F43.96
sI229
F67.93
sI230
F43.96
sI231
F91.93
sI232
F9.97
sI233
F94.85
sI234
F23.95
sI235
F34.97
sI236
F49.95
sI237
F49.95
sI238
F1.98
sI239
F23.97
sI240
F7.98
sI241
F39.97
sI242
F4.88
sI243
F14.98
sI244
F20.96
sI245
F17.98
sI246
F9.98
sI247
F29.98
sI248
F37.91
sI249
F89.98
sI250
F22.98
sI251
F19.97
sI252
F4.98
sI253
F26.96
sI254
F19.98
sI255
F1.98
sI256
F29.96
sI257
F17.77
sI258
F33.97
sI259
F13.98
sI260
F12.96
sI261
F45.96
sI262
F80.95
sI263
F5.98
sI264
F6.98
sI265
F21.97
sI266
F37.96
sI267
F44.95
sI268
F16.96
sI269
F8.98
sI270
F4.98
sI271
F11.97
sI272
F20.96
sI273
F4.38
sI274
F14.98
sI275
F30.98
sI276
F23.98
sI277
F6.46
sI278
F15.96
sI279
F23.94
sI280
F13.96
sI281
F21.96
sI282
F8.98
sI283
F5.97
sI284
F10.98
sI285
F31.97
sI286
F54.98
sI287
F29.96
sI288
F29.99
sI289
F3.98
sI290
F9.98
sI291
F12.98
sI292
F8.97
sI293
F7.89
sI294
F36.03
sI295
F79.98
sI296
F18.98
sI297
F450.11
sI298
F28.79
sI299
F54.96
sI300
F51.89
sI301
F6.95
sI302
F10.91
sI303
F34.96
sI304
F149.34
sI305
F4.46
sI306
F3.98
sI307
F17.98
sI308
F18.98
sI309
F29.92
sI310
F65.93
sI311
F15.98
sI312
F99.97
sI313
F38.73
sI314
F24.91
sI315
F199.21
sI316
F12.95
sI317
F17.97
sI318
F37.89
sI319
F13.97
sI320
F11.94
sI321
F20.91
sI322
F23.97
sI323
F5.98
sI324
F11.95
sI325
F20.98
sI326
F2.98
sI327
F6.46
sI328
F8.98
sI329
F89.98
sI330
F42.46
sI331
F36.91
sI332
F27.97
sI333
F60.63
sI334
F25.97
sI335
F45.96
sI336
F93.86
sI337
F33.88
sI338
F19.98
sI339
F44.95
sI340
F31.95
sI341
F37.41
sI342
F19.97
sI343
F39.96
sI344
F19.98
sI345
F15.98
sI346
F41.93
sI347
F41.93
sI348
F11.98
sI349
F15.97
sI350
F22.98
sI351
F66.85
sI352
F29.91
sI353
F119.92
sI354
F89.95
sI355
F44.96
sI356
F3.9
sI357
F29.98
sI358
F129.93
sI359
F2.98
sI360
F31.96
sI361
F139.96
sI362
F8.96
sI363
F32.96
sI364
F24.98
sI365
F84.98
sI366
F53.94
sI367
F69.95
sI368
F151.26
sI369
F12.98
sI370
F12.98
sI371
F99.98
sI372
F39.96
sI373
F377.81
sI374
F6.87
sI375
F30.93
sI376
F39.96
sI377
F11.97
sI378
F9.48
sI379
F49.96
sI380
F39.96
sI381
F39.96
sI382
F39.96
sI383
F69.97
sI384
F137.58
sI385
F27.97
sI386
F45.9
sI387
F8.98
sI388
F7.98
sI389
F6.98
sI390
F15.91
sI391
F23.94
sI392
F8.98
sI393
F17.96
sI394
F21.95
sI395
F14.96
sI396
F25.93
sI397
F28.93
sI398
F10.98
sI399
F59.97
sI400
F47.47
sI401
F22.97
sI402
F329.65
sI403
F27.43
sI404
F90.94
sI405
F144.92
sI406
F5.97
sI407
F10.44
sI408
F3.98
sI409
F39.95
sI410
F28.95
sI411
F2.97
sI412
F56.97
sI413
F25.96
sI414
F23.96
sI415
F11.98
sI416
F9.97
sI417
F50.84
sI418
F17.98
sI419
F8.96
sI420
F6.98
sI421
F69.97
sI422
F134.95
sI423
F2.28
sI424
F99.91
sI425
F114.98
sI426
F20.97
sI427
F209.89
sI428
F5.48
sI429
F11.97
sI430
F81.63
sI431
F11.98
sI432
F71.64
sI433
F39.97
sI434
F199.98
sI435
F10.98
sI436
F145.72
sI437
F13.97
sI438
F19.96
sI439
F14.96
sI440
F64.33
sI441
F47.95
sI442
F64.96
sI443
F13.47
sI444
F7.96
sI445
F44.96
sI446
F8.46
sI447
F167.78
sI448
F247.73
sI449
F41.95
sI450
F17.96
sI451
F19.97
sI452
F17.98
sI453
F9.98
sI454
F104.95
sI455
F39.96
sI456
F25.98
sI457
F46.97
sI458
F180.86
sI459
F91.84
sI460
F269.43
sI461
F89.94
sI462
F89.94
sI463
F104.93
sI464
F104.93
sI465
F60.92
sI466
F200.81
sI467
F39.98
sI468
F29.98
sI469
F24.96
sI470
F44.97
sI471
F24.96
sI472
F8.96
sI473
F34.97
sI474
F119.98
sI475
F31.97
sI476
F19.98
sI477
F8.98
sI478
F204.93
sI479
F111.96
sI480
F201.77
sI481
F273.32
sI482
F14.97
sI483
F2.97
sI484
F417.88
sI485
F119.93
sI486
F14.97
sI487
F60.94
sI488
F201.66
sI489
F48.95
sI490
F109.98
sI491
F159.98
sI492
F26.98
sI493
F14.98
sI494
F277.67
sI495
F77.95
sI496
F70.96
sI497
F56.94
sI498
F20.98
sI499
F107.39
sI500
F12.98
sI501
F8.57
sI502
F49.95
sI503
F51.96
sI504
F6.98
sI505
F143.88
sI506
F34.98
sI507
F10.47
sI508
F18.97
sI509
F42.08
sI510
F46.44
sI511
F70.93
sI512
F4.98
sI513
F105.72
sI514
F25.94
sI515
F42.92
sI516
F29.71
sI517
F39.96
sI518
F17.97
sI519
F14.98
sI520
F89.96
sI521
F171.8
sI522
F44.97
sI523
F192.92
sI524
F179.95
sI525
F5.97
sI526
F5.97
sI527
F5.97
sI528
F5.97
sI529
F75.43
sI530
F18.98
sI531
F229.93
sI532
F53.28
sI533
F55.96
sI534
F36.97
sI535
F5.98
sI536
F25.94
sI537
F3.97
sI538
F169.98
sI539
F29.98
sI540
F52.38
sI541
F14.98
sI542
F109.98
sI543
F415.47
sI544
F11.96
sI545
F59.98
sI546
F12.98
sI547
F94.93
sI548
F14.98
sI549
F30.95
sI550
F46.94
sI551
F179.95
sI552
F22.97
sI553
F34.94
sI554
F29.97
sI555
F37.47
sI556
F29.97
sI557
F19.98
sI558
F14.98
sI559
F13.98
sI560
F4.46
sI561
F10.48
sI562
F21.97
sI563
F4.98
sI564
F90.76
sI565
F28.98
sI566
F24.98
sI567
F23.94
sI568
F20.94
sI569
F20.97
sI570
F11.96
sI571
F2.98
sI572
F18.55
sI573
F14.97
sI574
F9.98
sI575
F52.97
sI576
F28.95
sI577
F81.93
sI578
F40.95
sI579
F50.97
sI580
F87.92
sI581
F347.44
sI582
F44.96
sI583
F29.97
sI584
F13.96
sI585
F38.97
sI586
F17.91
sI587
F13.98
sI588
F14.98
sI589
F20.96
sI590
F7.98
sI591
F9.98
sI592
F4.38
sI593
F140.85
sI594
F118.88
sI595
F147.85
sI596
F21.92
sI597
F11.98
sI598
F13.98
sI599
F46.45
sI600
F12.97
sI601
F6.98
sI602
F23.96
sI603
F12.97
sI604
F20.96
sI605
F24.98
sI606
F56.95
sI607
F11.98
sI608
F15.97
sI609
F6.98
sI610
F13.96
sI611
F3.98
sI612
F17.98
sI613
F61.9
sI614
F6.98
sI615
F5.97
s.