(dp0
I1
F10.0
sI2
F22.0
sI3
F22.0
sI4
F40.0
sI5
F22.0
sI6
F65.0
sI7
F10.0
sI8
F40.0
sI9
F25.0
sI10
F33.0
sI11
F22.0
sI12
F10.0
sI13
F15.0
sI14
F12.0
sI15
F6.0
sI16
F50.0
sI17
F28.0
sI18
F22.0
sI19
F22.0
sI20
F28.0
sI21
F90.0
sI22
F92.0
sI23
F30.0
sI24
F40.0
sI25
F15.0
sI26
F30.0
sI27
F10.0
sI28
F50.0
sI29
F20.0
sI30
F25.0
sI31
F40.0
sI32
F33.0
sI33
F0.0
sI34
F50.0
sI35
F40.0
sI36
F17.0
sI37
F10.0
sI38
F40.0
sI39
F40.0
sI40
F50.0
sI41
F0.0
sI42
F35.0
sI43
F25.0
sI44
F33.0
sI45
F50.0
sI46
F0.0
sI47
F20.0
sI48
F50.0
sI49
F50.0
sI50
F10.0
sI51
F10.0
sI52
F13.0
sI53
F6.0
sI54
F10.0
sI55
F30.0
sI56
F60.0
sI57
F85.0
sI58
F50.0
sI59
F86.0
sI60
F25.0
sI61
F10.0
sI62
F50.0
sI63
F16.0
sI64
F8.0
sI65
F16.0
sI66
F35.0
sI67
F22.0
sI68
F28.0
sI69
F16.0
sI70
F16.0
sI71
F22.0
sI72
F22.0
sI73
F33.0
sI74
F13.0
sI75
F41.0
sI76
F50.0
sI77
F20.0
sI78
F25.0
sI79
F10.0
sI80
F10.0
sI81
F10.0
sI82
F15.0
sI83
F15.0
sI84
F32.0
sI85
F50.0
sI86
F10.0
sI87
F7.5
sI88
F10.0
sI89
F10.0
sI90
F0.0
sI91
F0.0
sI92
F0.0
sI93
F20.0
sI94
F20.0
sI95
F10.0
sI96
F20.0
sI97
F50.0
sI98
F49.0
sI99
F80.0
sI100
F25.0
sI101
F15.0
sI102
F0.0
sI103
F17.0
sI104
F10.0
sI105
F10.0
sI106
F0.0
sI107
F20.0
sI108
F20.0
sI109
F30.0
sI110
F0.0
sI111
F10.0
sI112
F35.0
sI113
F25.0
sI114
F25.0
sI115
F10.0
sI116
F23.0
sI117
F10.0
sI118
F15.0
sI119
F10.0
sI120
F20.0
sI121
F5.0
sI122
F20.0
sI123
F20.0
sI124
F35.0
sI125
F10.0
sI126
F10.0
sI127
F25.0
sI128
F20.0
sI129
F10.0
sI130
F20.0
sI131
F15.0
sI132
F30.0
sI133
F60.0
sI134
F5.0
sI135
F10.0
sI136
F10.0
sI137
F50.0
sI138
F87.0
sI139
F10.0
sI140
F35.0
sI141
F20.0
sI142
F16.0
sI143
F20.0
sI144
F25.0
sI145
F29.0
sI146
F10.0
sI147
F40.0
sI148
F10.0
sI149
F10.0
sI150
F20.0
sI151
F10.0
sI152
F10.0
sI153
F10.0
sI154
F15.0
sI155
F16.0
sI156
F40.0
sI157
F0.0
sI158
F20.0
sI159
F10.0
sI160
F10.0
sI161
F18.0
sI162
F61.0
sI163
F20.0
sI164
F14.0
sI165
F15.0
sI166
F11.0
sI167
F30.0
sI168
F15.0
sI169
F15.0
sI170
F15.0
sI171
F25.0
sI172
F60.0
sI173
F20.0
sI174
F50.0
sI175
F10.0
sI176
F45.0
sI177
F25.0
sI178
F20.0
sI179
F0.0
sI180
F40.0
sI181
F40.0
sI182
F46.0
sI183
F25.0
sI184
F39.0
sI185
F45.0
sI186
F20.0
sI187
F33.0
sI188
F80.0
sI189
F20.0
sI190
F10.0
sI191
F50.0
sI192
F10.0
sI193
F10.0
sI194
F30.0
sI195
F10.0
sI196
F15.0
sI197
F20.0
sI198
F20.0
sI199
F30.0
sI200
F10.0
sI201
F10.0
sI202
F10.0
sI203
F50.0
sI204
F10.0
sI205
F0.0
sI206
F10.0
sI207
F25.0
sI208
F30.0
sI209
F25.0
sI210
F25.0
sI211
F80.0
sI212
F38.0
sI213
F57.0
sI214
F20.0
sI215
F40.0
sI216
F15.0
sI217
F45.0
sI218
F25.0
sI219
F27.0
sI220
F33.0
sI221
F25.0
sI222
F10.0
sI223
F17.0
sI224
F0.0
sI225
F42.0
sI226
F35.0
sI227
F50.0
sI228
F20.0
sI229
F25.0
sI230
F50.0
sI231
F10.0
sI232
F50.0
sI233
F30.0
sI234
F40.0
sI235
F15.0
sI236
F30.0
sI237
F30.0
sI238
F10.0
sI239
F20.0
sI240
F20.0
sI241
F25.0
sI242
F20.0
sI243
F20.0
sI244
F20.0
sI245
F35.0
sI246
F20.0
sI247
F20.0
sI248
F33.0
sI249
F0.0
sI250
F13.0
sI251
F25.0
sI252
F15.0
sI253
F40.0
sI254
F0.0
sI255
F30.0
sI256
F92.0
sI257
F20.0
sI258
F25.0
sI259
F25.0
sI260
F40.0
sI261
F10.0
sI262
F10.0
sI263
F10.0
sI264
F15.0
sI265
F0.0
sI266
F20.0
sI267
F20.0
sI268
F20.0
sI269
F20.0
sI270
F20.0
sI271
F20.0
sI272
F30.0
sI273
F20.0
sI274
F20.0
sI275
F7.0
sI276
F10.0
sI277
F57.0
sI278
F20.0
sI279
F25.0
sI280
F20.0
sI281
F20.0
sI282
F15.0
sI283
F25.0
sI284
F5.0
sI285
F20.0
sI286
F10.0
sI287
F20.0
sI288
F0.0
sI289
F10.0
sI290
F33.0
sI291
F10.0
sI292
F50.0
sI293
F10.0
sI294
F75.0
sI295
F25.0
sI296
F10.0
sI297
F50.0
sI298
F89.0
sI299
F10.0
sI300
F80.0
sI301
F50.0
sI302
F48.0
sI303
F30.0
sI304
F67.0
sI305
F33.0
sI306
F15.0
sI307
F9.0
sI308
F20.0
sI309
F20.0
sI310
F29.0
sI311
F15.0
sI312
F25.0
sI313
F22.0
sI314
F30.0
sI315
F50.0
sI316
F65.0
sI317
F15.0
sI318
F25.0
sI319
F89.0
sI320
F64.0
sI321
F67.0
sI322
F50.0
sI323
F0.0
sI324
F75.0
sI325
F15.0
sI326
F67.0
sI327
F50.0
sI328
F10.0
sI329
F10.0
sI330
F10.0
sI331
F30.0
sI332
F25.0
sI333
F10.0
sI334
F10.0
sI335
F0.0
sI336
F10.0
sI337
F10.0
sI338
F15.0
sI339
F25.0
sI340
F25.0
sI341
F50.0
sI342
F15.0
sI343
F10.0
sI344
F25.0
sI345
F6.0
sI346
F50.0
sI347
F50.0
sI348
F20.0
sI349
F20.0
sI350
F20.0
sI351
F5.0
sI352
F30.0
sI353
F30.0
sI354
F10.0
sI355
F25.0
sI356
F15.0
sI357
F15.0
sI358
F25.0
sI359
F10.0
sI360
F20.0
sI361
F10.0
sI362
F25.0
sI363
F20.0
sI364
F10.0
sI365
F25.0
sI366
F25.0
sI367
F20.0
sI368
F20.0
sI369
F25.0
sI370
F10.0
sI371
F10.0
sI372
F15.0
sI373
F33.0
sI374
F5.0
sI375
F40.0
sI376
F30.0
sI377
F15.0
sI378
F10.0
sI379
F15.0
sI380
F30.0
sI381
F30.0
sI382
F30.0
sI383
F10.0
sI384
F25.0
sI385
F20.0
sI386
F25.0
sI387
F25.0
sI388
F25.0
sI389
F25.0
sI390
F50.0
sI391
F25.0
sI392
F25.0
sI393
F25.0
sI394
F25.0
sI395
F25.0
sI396
F25.0
sI397
F25.0
sI398
F25.0
sI399
F10.0
sI400
F25.0
sI401
F15.0
sI402
F18.0
sI403
F25.0
sI404
F40.0
sI405
F0.0
sI406
F40.0
sI407
F35.0
sI408
F30.0
sI409
F25.0
sI410
F25.0
sI411
F15.0
sI412
F30.0
sI413
F23.0
sI414
F20.0
sI415
F30.0
sI416
F25.0
sI417
F10.0
sI418
F20.0
sI419
F33.0
sI420
F15.0
sI421
F0.0
sI422
F0.0
sI423
F40.0
sI424
F10.0
sI425
F10.0
sI426
F15.0
sI427
F50.0
sI428
F5.0
sI429
F25.0
sI430
F50.0
sI431
F10.0
sI432
F50.0
sI433
F20.0
sI434
F10.0
sI435
F33.0
sI436
F25.0
sI437
F7.0
sI438
F10.0
sI439
F30.0
sI440
F30.0
sI441
F10.0
sI442
F39.0
sI443
F25.0
sI444
F30.0
sI445
F15.0
sI446
F40.0
sI447
F60.0
sI448
F45.0
sI449
F30.0
sI450
F30.0
sI451
F0.0
sI452
F17.0
sI453
F0.0
sI454
F15.0
sI455
F38.0
sI456
F0.0
sI457
F25.0
sI458
F34.0
sI459
F33.0
sI460
F15.0
sI461
F67.0
sI462
F67.0
sI463
F62.0
sI464
F62.0
sI465
F40.0
sI466
F55.0
sI467
F25.0
sI468
F25.0
sI469
F40.0
sI470
F35.0
sI471
F45.0
sI472
F40.0
sI473
F15.0
sI474
F25.0
sI475
F20.0
sI476
F5.0
sI477
F20.0
sI478
F10.0
sI479
F10.0
sI480
F30.0
sI481
F20.0
sI482
F20.0
sI483
F0.0
sI484
F25.0
sI485
F0.0
sI486
F20.0
sI487
F20.0
sI488
F37.0
sI489
F30.0
sI490
F10.0
sI491
F15.0
sI492
F8.0
sI493
F10.0
sI494
F25.0
sI495
F11.0
sI496
F15.0
sI497
F10.0
sI498
F7.0
sI499
F25.0
sI500
F15.0
sI501
F20.0
sI502
F20.0
sI503
F10.0
sI504
F10.0
sI505
F25.0
sI506
F26.0
sI507
F20.0
sI508
F21.0
sI509
F35.0
sI510
F15.0
sI511
F37.0
sI512
F25.0
sI513
F14.0
sI514
F60.0
sI515
F30.0
sI516
F30.0
sI517
F33.0
sI518
F10.0
sI519
F15.0
sI520
F15.0
sI521
F48.0
sI522
F11.0
sI523
F25.0
sI524
F25.0
sI525
F33.0
sI526
F33.0
sI527
F33.0
sI528
F33.0
sI529
F25.0
sI530
F30.0
sI531
F25.0
sI532
F20.0
sI533
F29.0
sI534
F25.0
sI535
F20.0
sI536
F20.0
sI537
F25.0
sI538
F25.0
sI539
F13.0
sI540
F40.0
sI541
F20.0
sI542
F0.0
sI543
F20.0
sI544
F20.0
sI545
F10.0
sI546
F10.0
sI547
F15.0
sI548
F20.0
sI549
F10.0
sI550
F36.0
sI551
F10.0
sI552
F20.0
sI553
F65.0
sI554
F17.0
sI555
F7.0
sI556
F20.0
sI557
F0.0
sI558
F20.0
sI559
F15.0
sI560
F15.0
sI561
F10.0
sI562
F35.0
sI563
F20.0
sI564
F30.0
sI565
F10.0
sI566
F10.0
sI567
F25.0
sI568
F25.0
sI569
F15.0
sI570
F20.0
sI571
F10.0
sI572
F50.0
sI573
F34.0
sI574
F5.0
sI575
F25.0
sI576
F10.0
sI577
F15.0
sI578
F10.0
sI579
F12.0
sI580
F15.0
sI581
F15.0
sI582
F25.0
sI583
F10.0
sI584
F25.0
sI585
F10.0
sI586
F30.0
sI587
F25.0
sI588
F34.0
sI589
F20.0
sI590
F25.0
sI591
F10.0
sI592
F20.0
sI593
F20.0
sI594
F20.0
sI595
F20.0
sI596
F10.0
sI597
F15.0
sI598
F15.0
sI599
F15.0
sI600
F45.0
sI601
F20.0
sI602
F40.0
sI603
F15.0
sI604
F30.0
sI605
F28.0
sI606
F15.0
sI607
F10.0
sI608
F10.0
sI609
F20.0
sI610
F50.0
sI611
F33.0
sI612
F10.0
sI613
F30.0
sI614
F20.0
sI615
F20.0
s.