ccollections
defaultdict
p0
(c__builtin__
float
p1
tp2
Rp3
I0
V4.79
p4
sI1
V19.99
p5
sI2
V1.99
p6
sI3
V3.33
p7
sI4
V9.99
p8
sI5
V8.99
p9
sI6
V3.33
p10
sI7
V4.99
p11
sI8
V3.99
p12
sI9
V3.33
p13
sI10
V4.99
p14
sI11
V0.99
p15
sI12
V3.33
p16
sI13
V4.99
p17
sI14
V8.99
p18
sI15
V3.33
p19
sI16
V4.99
p20
sI17
V6.99
p21
sI18
V8.99
p22
sI19
V4.99
p23
sI20
V3.99
p24
sI21
V3.33
p25
sI22
V4.99
p26
sI23
V4.00
p27
sI24
V9.99
p28
sI25
V0.99
p29
sI26
V4.00
p30
sI27
V39.99
p31
sI28
V0.99
p32
sI29
V2.99
p33
sI30
V0.99
p34
sI31
V0.99
p35
sI32
V2.99
p36
sI33
V0.99
p37
sI34
V5.99
p38
sI35
V0.99
p39
sI36
V0.99
p40
sI37
V0.99
p41
sI38
V0.99
p42
sI39
V1.99
p43
sI40
V1.99
p44
sI41
V1.99
p45
sI42
V1.99
p46
sI43
V2.99
p47
sI44
V0.99
p48
sI45
V0.99
p49
sI46
V0.99
p50
sI47
V0.99
p51
sI48
V1.99
p52
sI49
V1.99
p53
sI50
V1.99
p54
sI51
V1.99
p55
sI52
V4.00
p56
sI53
V4.99
p57
sI54
V2.99
p58
sI55
V6.99
p59
sI56
V9.99
p60
sI57
V1.99
p61
sI58
V0.99
p62
sI59
V0.99
p63
sI60
V2.99
p64
sI61
V4.99
p65
sI62
V29.99
p66
sI63
V14.99
p67
sI64
V19.99
p68
sI65
V4.00
p69
sI66
V4.99
p70
sI67
V9.99
p71
sI68
V6.99
p72
sI69
V4.00
p73
sI70
V1.99
p74
sI71
V19.99
p75
sI72
V9.99
p76
sI73
V4.00
p77
sI74
V0.99
p78
sI75
V0.99
p79
sI76
V9.99
p80
sI77
V9.99
p81
sI78
V1.99
p82
sI79
V4.00
p83
sI80
V2.99
p84
sI81
V4.00
p85
sI82
V2.99
p86
sI83
V9.99
p87
sI84
V14.99
p88
sI85
V14.99
p89
sI86
V1.99
p90
sI87
V1.99
p91
sI88
V14.99
p92
sI89
V14.99
p93
sI90
V14.99
p94
sI91
V14.99
p95
sI92
V6.99
p96
sI93
V19.99
p97
sI94
V24.99
p98
sI95
V19.99
p99
sI96
V19.99
p100
sI97
V0.99
p101
sI98
V19.99
p102
sI99
V1.99
p103
sI100
V9.99
p104
sI101
V1.99
p105
sI102
V1.99
p106
sI103
V1.99
p107
sI104
V9.99
p108
sI105
V2.99
p109
sI106
V2.99
p110
sI107
V0.99
p111
sI108
V0.99
p112
sI109
V0.99
p113
sI110
V14.99
p114
sI111
V2.99
p115
sI112
V0.99
p116
sI113
V29.99
p117
sI114
V0.99
p118
sI115
V4.99
p119
sI116
V0.99
p120
sI117
V9.99
p121
sI118
V0.99
p122
sI119
V0.99
p123
sI120
V19.99
p124
sI121
V5.99
p125
sI122
V9.99
p126
sI123
V7.99
p127
sI124
V3.99
p128
sI125
V13.37
p129
sI126
V12.99
p130
sI127
V3.99
p131
sI128
V49.99
p132
sI129
V4.99
p133
sI130
V6.99
p134
sI131
V5.99
p135
sI132
V1.99
p136
sI133
V6.99
p137
sI134
V9.99
p138
sI135
V2.49
p139
sI136
V7.49
p140
sI137
V7.99
p141
sI138
V4.99
p142
sI139
V19.99
p143
sI140
V9.99
p144
sI141
V9.99
p145
sI142
V14.99
p146
sI143
V19.99
p147
sI144
V6.99
p148
sI145
V2.99
p149
sI146
V2.99
p150
sI147
V19.99
p151
sI148
V2.99
p152
sI149
V5.99
p153
sI150
V7.99
p154
sI151
V19.99
p155
sI152
V4.99
p156
sI153
V5.99
p157
sI154
V14.99
p158
sI155
V14.99
p159
sI156
V1.99
p160
sI157
V9.99
p161
sI158
V9.99
p162
sI159
V29.99
p163
sI160
V4.99
p164
sI161
V9.99
p165
sI162
V1.99
p166
sI163
V7.99
p167
sI164
V9.99
p168
sI165
V9.99
p169
sI166
V29.99
p170
sI167
V12.99
p171
sI168
V14.99
p172
sI169
V0.99
p173
sI170
V9.99
p174
sI171
V19.99
p175
sI172
V39.99
p176
sI173
V6.99
p177
sI174
V4.99
p178
sI175
V1.99
p179
sI176
V1.99
p180
sI177
V2.99
p181
sI178
V2.99
p182
sI179
V2.99
p183
sI180
V2.99
p184
sI181
V9.99
p185
sI182
V4.99
p186
sI183
V7.49
p187
sI184
V4.99
p188
sI185
V29.99
p189
sI186
V4.99
p190
sI187
V0.99
p191
sI188
V12.99
p192
sI189
V19.99
p193
sI190
V19.99
p194
sI191
V3.99
p195
sI192
V10.99
p196
sI193
V1.99
p197
sI194
V49.99
p198
sI195
V11.99
p199
sI196
V9.99
p200
sI197
V4.00
p201
sI198
V9.99
p202
sI199
V1.99
p203
sI200
V14.99
p204
sI201
V0.99
p205
sI202
V7.99
p206
sI203
V9.99
p207
sI204
V19.99
p208
sI205
V3.99
p209
sI206
V6.99
p210
sI207
V2.99
p211
sI208
V19.99
p212
sI209
V5.99
p213
sI210
V29.99
p214
sI211
V0.99
p215
sI212
V9.99
p216
sI213
V6.49
p217
sI214
V4.00
p218
sI215
V14.99
p219
sI216
V2.99
p220
sI217
V1.99
p221
sI218
V0.99
p222
sI219
V3.99
p223
sI220
V9.99
p224
sI221
V4.99
p225
sI222
V3.99
p226
sI223
V4.99
p227
sI224
V6.99
p228
sI225
V6.99
p229
sI226
V39.99
p230
sI227
V9.99
p231
sI228
V3.99
p232
sI229
V3.99
p233
sI230
V3.99
p234
sI231
V1.99
p235
sI232
V9.99
p236
sI233
V19.99
p237
sI234
V5.99
p238
sI235
V9.99
p239
sI236
V19.99
p240
sI237
V39.99
p241
sI238
V14.99
p242
sI239
V4.99
p243
sI240
V14.99
p244
sI241
V9.99
p245
sI242
V9.99
p246
sI243
V4.99
p247
sI244
V29.99
p248
sI245
V6.99
p249
sI246
V9.99
p250
sI247
V1.99
p251
sI248
V399.99
p252
sI249
V4.99
p253
sI250
V14.99
p254
sI251
V14.99
p255
sI252
V19.99
p256
sI253
V3.99
p257
sI254
V4.99
p258
sI255
V4.99
p259
sI256
V29.99
p260
sI257
V4.99
p261
sI258
V4.99
p262
sI259
V1.99
p263
sI260
V99.99
p264
sI261
V0.99
p265
sI262
V0.99
p266
sI263
V0.49
p267
sI264
V0.99
p268
sI265
V0.99
p269
sI266
V9.99
p270
sI267
V2.99
p271
sI268
V9.99
p272
sI269
V9.99
p273
sI270
V4.99
p274
sI271
V24.99
p275
sI272
V19.99
p276
sI273
V6.99
p277
sI274
V1.99
p278
sI275
V1.99
p279
sI276
V1.99
p280
sI277
V1.99
p281
sI278
V9.99
p282
sI279
V4.99
p283
sI280
V6.99
p284
sI281
V2.99
p285
sI282
V0.99
p286
sI283
V2.99
p287
sI284
V0.99
p288
sI285
V3.99
p289
sI286
V7.99
p290
sI287
V12.99
p291
sI288
V0.99
p292
sI289
V5.99
p293
sI290
V1.99
p294
sI291
V2.99
p295
sI292
V0.99
p296
sI293
V399.99
p297
sI294
V1.99
p298
sI295
V14.99
p299
sI296
V12.99
p300
sI297
V5.99
p301
sI298
V1.99
p302
sI299
V4.99
p303
sI300
V9.99
p304
sI301
V5.99
p305
sI302
V1.49
p306
sI303
V14.99
p307
sI304
V5.99
p308
sI305
V2.49
p309
sI306
V9.99
p310
sI307
V4.99
p311
sI308
V4.99
p312
sI309
V1.99
p313
sI310
V0.99
p314
sI311
V0.99
p315
sI312
V5.99
p316
sI313
V2.99
p317
sI314
V3.59
p318
sI315
V1.99
p319
sI316
V1.99
p320
sI317
V1.99
p321
sI318
V1.99
p322
sI319
V1.99
p323
sI320
V1.99
p324
sI321
V1.99
p325
sI322
V1.99
p326
sI323
V1.99
p327
sI324
V1.99
p328
sI325
V1.99
p329
sI326
V1.99
p330
sI327
V2.49
p331
sI328
V4.99
p332
sI329
V9.99
p333
sI330
V1.99
p334
sI331
V1.99
p335
sI332
V1.99
p336
sI333
V1.99
p337
sI334
V1.99
p338
sI335
V1.99
p339
sI336
V1.99
p340
sI337
V2.49
p341
sI338
V1.99
p342
sI339
V9.99
p343
sI340
V9.99
p344
sI341
V0.99
p345
sI342
V19.99
p346
sI343
V12.99
p347
sI344
V2.99
p348
sI345
V1.99
p349
sI346
V5.99
p350
sI347
V12.99
p351
sI348
V19.99
p352
sI349
V6.99
p353
sI350
V0.99
p354
sI351
V0.99
p355
sI352
V0.99
p356
sI353
V0.99
p357
sI354
V12.99
p358
sI355
V0.99
p359
sI356
V6.99
p360
sI357
V0.99
p361
sI358
V0.99
p362
sI359
V59.99
p363
sI360
V19.99
p364
sI361
V9.99
p365
sI362
V8.99
p366
sI363
V6.99
p367
sI364
V1.99
p368
sI365
V9.99
p369
sI366
V9.99
p370
sI367
V9.99
p371
sI368
V9.99
p372
sI369
V1.99
p373
sI370
V1.99
p374
sI371
V4.99
p375
sI372
V1.99
p376
sI373
V1.99
p377
sI374
V6.99
p378
sI375
V1.99
p379
sI376
V4.99
p380
sI377
V6.99
p381
sI378
V3.99
p382
sI379
V4.99
p383
sI380
V1.99
p384
sI381
V19.99
p385
sI382
V0.99
p386
sI383
V0.99
p387
sI384
V0.99
p388
sI385
V9.99
p389
sI386
V0.99
p390
sI387
V0.99
p391
sI388
V3.99
p392
sI389
V0.99
p393
sI390
V0.99
p394
sI391
V0.99
p395
sI392
V1.99
p396
sI393
V0.99
p397
sI394
V0.99
p398
sI395
V1.99
p399
sI396
V0.99
p400
sI397
V39.99
p401
sI398
V0.99
p402
sI399
V0.99
p403
sI400
V4.99
p404
sI401
V0.99
p405
sI402
V1.99
p406
sI403
V7.99
p407
sI404
V1.99
p408
sI405
V4.99
p409
sI406
V4.99
p410
sI407
V14.99
p411
sI408
V9.99
p412
sI409
V19.99
p413
sI410
V1.99
p414
sI411
V14.99
p415
sI412
V9.99
p416
sI413
V4.99
p417
sI414
V1.99
p418
sI415
V39.99
p419
sI416
V19.99
p420
sI417
V1.99
p421
sI418
V19.99
p422
sI419
V4.99
p423
sI420
V19.99
p424
sI421
V9.99
p425
sI422
V0.99
p426
sI423
V12.99
p427
sI424
V13.99
p428
sI425
V19.99
p429
sI426
V14.99
p430
sI427
V9.99
p431
sI428
V3.99
p432
sI429
V1.99
p433
sI430
V29.99
p434
sI431
V4.99
p435
sI432
V29.99
p436
sI433
V9.99
p437
sI434
V49.99
p438
sI435
V1.99
p439
sI436
V7.99
p440
sI437
V0.99
p441
sI438
V59.99
p442
sI439
V3.99
p443
sI440
V3.99
p444
sI441
V12.99
p445
sI442
V9.99
p446
sI443
V6.99
p447
sI444
V9.99
p448
sI445
V4.49
p449
sI446
V9.99
p450
sI447
V29.99
p451
sI448
V9.99
p452
sI449
V7.99
p453
sI450
V11.99
p454
sI451
V2.99
p455
sI452
V1.99
p456
sI453
V1.99
p457
sI454
V1.99
p458
sI455
V9.99
p459
sI456
V9.99
p460
sI457
V6.99
p461
sI458
V7.99
p462
sI459
V0.99
p463
sI460
V19.99
p464
sI461
V34.99
p465
sI462
V4.99
p466
sI463
V4.99
p467
sI464
V4.99
p468
sI465
V4.99
p469
sI466
V3.99
p470
sI467
V9.99
p471
sI468
V0.99
p472
sI469
V12.99
p473
sI470
V4.99
p474
sI471
V19.99
p475
sI472
V24.99
p476
sI473
V59.99
p477
sI474
V9.99
p478
sI475
V7.99
p479
sI476
V4.99
p480
sI477
V19.99
p481
sI478
V4.99
p482
sI479
V14.99
p483
sI480
V39.99
p484
sI481
V3.99
p485
sI482
V7.49
p486
sI483
V29.99
p487
sI484
V3.99
p488
sI485
V9.99
p489
sI486
V2.99
p490
sI487
V9.99
p491
sI488
V7.99
p492
sI489
V1.99
p493
sI490
V4.99
p494
sI491
V14.99
p495
sI492
V4.99
p496
sI493
V4.99
p497
sI494
V4.99
p498
sI495
V4.99
p499
sI496
V5.00
p500
sI497
V5.99
p501
sI498
V0.99
p502
sI499
V9.99
p503
sI500
V1.99
p504
sI501
V6.99
p505
sI502
V6.99
p506
sI503
V2.99
p507
sI504
V1.99
p508
sI505
V4.99
p509
sI506
V14.99
p510
sI507
V6.99
p511
sI508
V49.99
p512
sI509
V24.99
p513
sI510
V6.99
p514
sI511
V9.99
p515
sI512
V2.99
p516
sI513
V1.99
p517
sI514
V9.99
p518
sI515
V9.99
p519
sI516
V6.99
p520
sI517
V1.99
p521
sI518
V4.99
p522
sI519
V6.99
p523
sI520
V0.99
p524
sI521
V1.99
p525
sI522
V19.99
p526
sI523
V9.99
p527
sI524
V2.99
p528
sI525
V4.99
p529
sI526
V4.99
p530
sI527
V6.99
p531
sI528
V6.99
p532
sI529
V6.99
p533
sI530
V2.99
p534
sI531
V6.99
p535
sI532
V2.99
p536
sI533
V9.99
p537
sI534
V9.99
p538
sI535
V4.99
p539
sI536
V1.19
p540
sI537
V4.99
p541
sI538
V1.99
p542
sI539
V1.99
p543
sI540
V4.99
p544
sI541
V4.99
p545
sI542
V1.99
p546
sI543
V1.99
p547
sI544
V1.99
p548
sI545
V1.99
p549
sI546
V2.99
p550
sI547
V1.99
p551
sI548
V1.99
p552
sI549
V1.99
p553
sI550
V4.99
p554
sI551
V1.99
p555
sI552
V4.99
p556
sI553
V6.99
p557
sI554
V1.99
p558
sI555
V1.99
p559
sI556
V4.99
p560
sI557
V1.99
p561
sI558
V1.99
p562
sI559
V1.99
p563
sI560
V1.99
p564
sI561
V1.99
p565
sI562
V10.99
p566
sI563
V1.99
p567
sI564
V1.99
p568
sI565
V1.99
p569
sI566
V1.99
p570
sI567
V1.99
p571
sI568
V1.99
p572
sI569
V1.99
p573
sI570
V1.99
p574
sI571
V1.99
p575
sI572
V1.99
p576
sI573
V1.99
p577
sI574
V1.99
p578
sI575
V1.99
p579
sI576
V1.99
p580
sI577
V1.99
p581
sI578
V1.99
p582
sI579
V1.99
p583
sI580
V1.99
p584
sI581
V1.99
p585
sI582
V19.99
p586
sI583
V29.99
p587
sI584
V4.99
p588
sI585
V9.99
p589
sI586
V2.49
p590
sI587
V29.99
p591
sI588
V4.99
p592
sI589
V5.49
p593
sI590
V9.99
p594
sI591
V7.99
p595
sI592
V0.99
p596
sI593
V6.99
p597
sI594
V1.79
p598
sI595
V2.69
p599
sI596
V1.79
p600
sI597
V1.39
p601
sI598
V9.99
p602
sI599
V1.99
p603
sI600
V7.49
p604
sI601
V0.99
p605
sI602
V24.99
p606
sI603
V24.99
p607
sI604
V24.99
p608
sI605
V39.99
p609
sI606
V19.99
p610
sI607
V1.99
p611
sI608
V9.99
p612
sI609
V9.99
p613
sI610
V14.99
p614
sI611
V6.99
p615
sI612
V24.99
p616
sI613
V4.99
p617
sI614
V4.99
p618
sI615
V9.99
p619
sI616
V3.49
p620
sI617
V1.99
p621
sI618
V3.99
p622
sI619
V0.99
p623
sI620
V3.49
p624
sI621
V4.99
p625
sI622
V4.99
p626
sI623
V4.99
p627
sI624
V1.99
p628
sI625
V1.99
p629
sI626
V1.99
p630
sI627
V1.99
p631
sI628
V0.99
p632
sI629
V0.99
p633
sI630
V2.99
p634
sI631
V2.99
p635
sI632
V2.99
p636
sI633
V1.99
p637
sI634
V4.99
p638
sI635
V9.99
p639
sI636
V9.99
p640
sI637
V2.99
p641
sI638
V2.99
p642
sI639
V2.99
p643
sI640
V0.99
p644
sI641
V3.99
p645
sI642
V2.99
p646
sI643
V1.99
p647
sI644
V7.99
p648
sI645
V19.99
p649
sI646
V6.99
p650
sI647
V6.99
p651
sI648
V9.99
p652
sI649
V9.99
p653
sI650
V6.99
p654
sI651
V17.99
p655
sI652
V7.99
p656
sI653
V7.99
p657
sI654
V5.99
p658
sI655
V13.99
p659
sI656
V9.99
p660
sI657
V9.99
p661
sI658
V1.99
p662
sI659
V1.99
p663
sI660
V1.99
p664
sI661
V1.99
p665
sI662
V1.99
p666
sI663
V9.99
p667
sI664
V9.99
p668
sI665
V4.99
p669
sI666
V1.99
p670
sI667
V9.99
p671
sI668
V3.99
p672
sI669
V9.99
p673
sI670
V4.99
p674
sI671
V19.99
p675
sI672
V9.99
p676
sI673
V0.99
p677
sI674
V1.99
p678
sI675
V0.99
p679
sI676
V12.99
p680
sI677
V5.99
p681
sI678
V4.89
p682
sI679
V9.99
p683
sI680
V4.99
p684
sI681
V4.99
p685
sI682
V1.99
p686
sI683
V3.99
p687
sI684
V1.99
p688
sI685
V1.99
p689
sI686
V1.99
p690
sI687
V1.99
p691
sI688
V1.99
p692
sI689
V1.99
p693
sI690
V19.99
p694
sI691
V1.99
p695
sI692
V1.99
p696
sI693
V1.99
p697
sI694
V1.99
p698
sI695
V1.99
p699
sI696
V1.99
p700
sI697
V14.99
p701
sI698
V9.99
p702
sI699
V0.99
p703
sI700
V12.99
p704
sI701
V9.99
p705
sI702
V9.99
p706
sI703
V4.99
p707
sI704
V2.99
p708
sI705
V1.99
p709
sI706
V7.99
p710
sI707
V19.99
p711
sI708
V9.99
p712
sI709
V1.99
p713
sI710
V1.99
p714
sI711
V7.99
p715
sI712
V0.99
p716
sI713
V3.39
p717
sI714
V14.99
p718
sI715
V0.99
p719
sI716
V3.99
p720
sI717
V0.99
p721
sI718
V3.74
p722
sI719
V9.99
p723
sI720
V4.99
p724
sI721
V3.99
p725
sI722
V9.99
p726
sI723
V3.99
p727
sI724
V9.99
p728
sI725
V19.99
p729
sI726
V3.99
p730
sI727
V3.99
p731
sI728
V19.99
p732
sI729
V4.99
p733
sI730
V9.99
p734
sI731
V3.99
p735
sI732
V4.99
p736
sI733
V3.99
p737
sI734
V3.99
p738
sI735
V3.99
p739
sI736
V1.99
p740
sI737
V8.99
p741
sI738
V1.99
p742
sI739
V2.99
p743
sI740
V4.99
p744
sI741
V34.99
p745
sI742
V1.99
p746
sI743
V9.99
p747
sI744
V3.49
p748
sI745
V9.99
p749
sI746
V1.99
p750
sI747
V6.99
p751
sI748
V5.99
p752
sI749
V0.99
p753
sI750
V5.99
p754
sI751
V0.99
p755
sI752
V0.99
p756
sI753
V0.99
p757
sI754
V0.99
p758
sI755
V0.99
p759
sI756
V0.99
p760
sI757
V0.99
p761
sI758
V0.99
p762
sI759
V6.99
p763
sI760
V14.99
p764
sI761
V0.99
p765
sI762
V1.99
p766
sI763
V4.99
p767
sI764
V7.99
p768
sI765
V6.99
p769
sI766
V4.24
p770
sI767
V4.99
p771
sI768
V5.99
p772
sI769
V7.99
p773
sI770
V4.24
p774
sI771
V8.99
p775
sI772
V2.99
p776
sI773
V5.99
p777
sI774
V4.99
p778
sI775
V6.99
p779
sI776
V14.99
p780
sI777
V4.99
p781
sI778
V1.99
p782
sI779
V4.99
p783
sI780
V5.99
p784
sI781
V15.99
p785
sI782
V0.99
p786
sI783
V3.99
p787
sI784
V0.99
p788
sI785
V1.99
p789
sI786
V9.99
p790
sI787
V4.99
p791
sI788
V2.99
p792
sI789
V2.99
p793
sI790
V5.99
p794
sI791
V2.99
p795
sI792
V12.99
p796
sI793
V4.99
p797
sI794
V0.99
p798
sI795
V4.99
p799
sI796
V0.99
p800
sI797
V9.99
p801
sI798
V0.99
p802
sI799
V0.99
p803
sI800
V0.99
p804
sI801
V1.99
p805
sI802
V2.99
p806
sI803
V1.99
p807
sI804
V1.99
p808
sI805
V7.99
p809
sI806
V14.99
p810
sI807
V14.99
p811
sI808
V9.99
p812
sI809
V79.99
p813
sI810
V9.99
p814
sI811
V9.99
p815
sI812
V14.99
p816
sI813
V3.49
p817
sI814
V3.49
p818
sI815
V3.49
p819
sI816
V3.49
p820
sI817
V7.99
p821
sI818
V9.99
p822
sI819
V4.99
p823
sI820
V12.99
p824
sI821
V9.99
p825
sI822
V19.99
p826
sI823
V2.99
p827
sI824
V19.99
p828
sI825
V9.99
p829
sI826
V4.99
p830
sI827
V19.99
p831
sI828
V1.99
p832
sI829
V8.99
p833
sI830
V3.99
p834
sI831
V9.99
p835
sI832
V13.99
p836
sI833
V2.99
p837
sI834
V9.99
p838
sI835
V6.99
p839
sI836
V3.99
p840
sI837
V9.99
p841
sI838
V4.99
p842
sI839
V14.99
p843
sI840
V6.99
p844
sI841
V14.99
p845
sI842
V1.99
p846
sI843
V0.99
p847
sI844
V7.99
p848
sI845
V6.99
p849
sI846
V7.99
p850
sI847
V1.99
p851
sI848
V21.99
p852
sI849
V0.59
p853
sI850
V3.99
p854
sI851
V0.99
p855
sI852
V19.99
p856
sI853
V8.99
p857
sI854
V4.99
p858
sI855
V4.99
p859
sI856
V4.99
p860
sI857
V2.99
p861
sI858
V4.99
p862
sI859
V4.99
p863
sI860
V2.49
p864
sI861
V4.99
p865
sI862
V3.99
p866
sI863
V16.99
p867
sI864
V9.99
p868
sI865
V5.99
p869
sI866
V2.99
p870
sI867
V5.99
p871
sI868
V4.99
p872
sI869
V11.99
p873
sI870
V1.99
p874
sI871
V2.99
p875
sI872
V1.99
p876
sI873
V3.99
p877
sI874
V4.99
p878
sI875
V3.99
p879
sI876
V1.99
p880
sI877
V8.99
p881
sI878
V4.99
p882
sI879
V4.99
p883
sI880
V4.99
p884
sI881
V4.99
p885
sI882
V4.99
p886
sI883
V4.99
p887
sI884
V1.99
p888
sI885
V2.99
p889
sI886
V3.99
p890
sI887
V1.99
p891
sI888
V4.99
p892
sI889
V0.99
p893
sI890
V0.99
p894
sI891
V0.99
p895
sI892
V1.99
p896
sI893
V7.99
p897
sI894
V7.99
p898
sI895
V7.99
p899
sI896
V7.99
p900
sI897
V0.99
p901
sI898
V1.99
p902
sI899
V29.99
p903
sI900
V4.99
p904
sI901
V19.99
p905
sI902
V8.99
p906
sI903
V1.99
p907
sI904
V14.99
p908
sI905
V11.99
p909
sI906
V3.99
p910
sI907
V19.99
p911
sI908
V9.99
p912
sI909
V4.99
p913
sI910
V3.99
p914
sI911
V5.99
p915
sI912
V0.59
p916
sI913
V0.99
p917
sI914
V12.79
p918
sI915
V1.99
p919
sI916
V8.99
p920
sI917
V1.99
p921
sI918
V7.99
p922
sI919
V4.99
p923
sI920
V10.99
p924
sI921
V6.99
p925
sI922
V19.49
p926
sI923
V1.69
p927
sI924
V14.99
p928
sI925
V1.99
p929
sI926
V4.99
p930
sI927
V14.99
p931
sI928
V14.99
p932
sI929
V4.99
p933
sI930
V14.99
p934
sI931
V4.99
p935
sI932
V3.99
p936
sI933
V0.99
p937
sI934
V9.99
p938
sI935
V1.99
p939
sI936
V14.99
p940
sI937
V3.99
p941
sI938
V24.99
p942
sI939
V4.99
p943
sI940
V3.99
p944
sI941
V4.99
p945
sI942
V0.99
p946
sI943
V9.99
p947
sI944
V12.99
p948
sI945
V3.99
p949
sI946
V9.99
p950
sI947
V5.99
p951
sI948
V2.99
p952
sI949
V19.99
p953
sI950
V9.99
p954
sI951
V9.99
p955
sI952
V19.99
p956
sI953
V19.99
p957
sI954
V5.99
p958
sI955
V9.99
p959
sI956
V9.99
p960
sI957
V1.99
p961
sI958
V4.99
p962
sI959
V5.99
p963
sI960
V2.99
p964
sI961
V1.99
p965
sI962
V2.99
p966
sI963
V1.99
p967
sI964
V4.99
p968
sI965
V1.99
p969
sI966
V6.99
p970
sI967
V1.99
p971
sI968
V2.99
p972
sI969
V2.99
p973
sI970
V19.99
p974
sI971
V1.99
p975
sI972
V1.99
p976
sI973
V1.99
p977
sI974
V1.99
p978
sI975
V1.99
p979
sI976
V1.99
p980
sI977
V1.99
p981
sI978
V1.99
p982
sI979
V1.99
p983
sI980
V1.99
p984
sI981
V1.99
p985
sI982
V1.99
p986
sI983
V1.99
p987
sI984
V9.99
p988
sI985
V1.99
p989
sI986
V1.99
p990
sI987
V1.99
p991
sI988
V1.99
p992
sI989
V14.99
p993
sI990
V39.99
p994
sI991
V14.99
p995
sI992
V0.99
p996
sI993
V1.99
p997
sI994
V3.99
p998
sI995
V4.99
p999
sI996
V19.99
p1000
sI997
V0.99
p1001
sI998
V19.99
p1002
sI999
V2.49
p1003
sI1000
V7.99
p1004
sI1001
V4.99
p1005
sI1002
V2.99
p1006
sI1003
V3.49
p1007
sI1004
V7.99
p1008
sI1005
V4.99
p1009
sI1006
V0.99
p1010
sI1007
V4.99
p1011
sI1008
V19.99
p1012
sI1009
V6.99
p1013
sI1010
V4.99
p1014
sI1011
V8.99
p1015
sI1012
V8.99
p1016
sI1013
V0.99
p1017
sI1014
V5.99
p1018
sI1015
V1.99
p1019
sI1016
V3.99
p1020
sI1017
V0.99
p1021
sI1018
V1.99
p1022
sI1019
V3.99
p1023
sI1020
V2.99
p1024
sI1021
V7.99
p1025
sI1022
V4.99
p1026
sI1023
V0.99
p1027
sI1024
V0.99
p1028
sI1025
V0.99
p1029
sI1026
V0.99
p1030
sI1027
V0.99
p1031
sI1028
V9.99
p1032
sI1029
V14.99
p1033
sI1030
V0.99
p1034
sI1031
V4.99
p1035
sI1032
V7.99
p1036
sI1033
V4.99
p1037
sI1034
V6.99
p1038
sI1035
V49.99
p1039
sI1036
V4.99
p1040
sI1037
V4.99
p1041
sI1038
V12.99
p1042
sI1039
V3.99
p1043
sI1040
V9.99
p1044
sI1041
V4.99
p1045
sI1042
V6.99
p1046
sI1043
V1.99
p1047
sI1044
V19.99
p1048
sI1045
V1.99
p1049
sI1046
V1.99
p1050
sI1047
V6.99
p1051
sI1048
V1.99
p1052
sI1049
V2.99
p1053
sI1050
V1.99
p1054
sI1051
V1.99
p1055
sI1052
V1.99
p1056
sI1053
V1.99
p1057
sI1054
V1.99
p1058
sI1055
V29.99
p1059
sI1056
V2.99
p1060
sI1057
V2.54
p1061
sI1058
V16.99
p1062
sI1059
V0.99
p1063
sI1060
V4.99
p1064
sI1061
V0.99
p1065
sI1062
V4.99
p1066
sI1063
V6.99
p1067
sI1064
V24.99
p1068
sI1065
V1.99
p1069
sI1066
V1.99
p1070
sI1067
V29.99
p1071
sI1068
V1.99
p1072
sI1069
V7.99
p1073
sI1070
V3.99
p1074
sI1071
V6.99
p1075
sI1072
V4.99
p1076
sI1073
V4.99
p1077
sI1074
V3.99
p1078
sI1075
V4.99
p1079
sI1076
V7.99
p1080
sI1077
V7.99
p1081
sI1078
V3.99
p1082
sI1079
V3.99
p1083
sI1080
V1.99
p1084
sI1081
V4.99
p1085
sI1082
V14.99
p1086
sI1083
V4.99
p1087
sI1084
V1.49
p1088
sI1085
V4.99
p1089
sI1086
V9.99
p1090
sI1087
V9.99
p1091
sI1088
V0.99
p1092
sI1089
V9.99
p1093
sI1090
V6.99
p1094
sI1091
V19.99
p1095
sI1092
V5.99
p1096
sI1093
V3.99
p1097
sI1094
V1.99
p1098
sI1095
V5.99
p1099
sI1096
V9.99
p1100
sI1097
V4.99
p1101
sI1098
V4.99
p1102
sI1099
V9.99
p1103
sI1100
V99.99
p1104
sI1101
V2.49
p1105
sI1102
V2.99
p1106
sI1103
V16.74
p1107
sI1104
V4.99
p1108
sI1105
V2.99
p1109
sI1106
V7.99
p1110
sI1107
V0.74
p1111
sI1108
V9.99
p1112
sI1109
V19.99
p1113
sI1110
V11.99
p1114
sI1111
V1.99
p1115
sI1112
V4.99
p1116
sI1113
V14.99
p1117
sI1114
V1.99
p1118
sI1115
V2.49
p1119
sI1116
V4.99
p1120
sI1117
V1.99
p1121
sI1118
V19.99
p1122
sI1119
V4.99
p1123
sI1120
V4.99
p1124
sI1121
V19.99
p1125
sI1122
V4.99
p1126
sI1123
V5.99
p1127
sI1124
V0.99
p1128
sI1125
V4.99
p1129
sI1126
V9.99
p1130
sI1127
V4.99
p1131
sI1128
V4.99
p1132
sI1129
V9.99
p1133
sI1130
V2.99
p1134
sI1131
V2.24
p1135
sI1132
V4.99
p1136
sI1133
V9.99
p1137
sI1134
V9.99
p1138
sI1135
V9.99
p1139
sI1136
V9.99
p1140
sI1137
V9.99
p1141
sI1138
V9.99
p1142
sI1139
V9.99
p1143
sI1140
V5.99
p1144
sI1141
V1.99
p1145
sI1142
V0.99
p1146
sI1143
V4.99
p1147
sI1144
V0.99
p1148
sI1145
V29.99
p1149
sI1146
V2.99
p1150
sI1147
V2.99
p1151
sI1148
V0.99
p1152
sI1149
V0.99
p1153
sI1150
V4.99
p1154
sI1151
V2.99
p1155
sI1152
V4.99
p1156
sI1153
V14.99
p1157
sI1154
V2.99
p1158
sI1155
V8.99
p1159
sI1156
V2.99
p1160
sI1157
V4.99
p1161
sI1158
V9.99
p1162
sI1159
V4.99
p1163
sI1160
V24.99
p1164
sI1161
V4.99
p1165
sI1162
V1.99
p1166
sI1163
V3.99
p1167
sI1164
V0.99
p1168
sI1165
V0.99
p1169
sI1166
V0.99
p1170
sI1167
V0.99
p1171
sI1168
V0.99
p1172
sI1169
V0.99
p1173
sI1170
V0.99
p1174
sI1171
V0.99
p1175
sI1172
V0.99
p1176
sI1173
V0.99
p1177
sI1174
V0.99
p1178
sI1175
V4.99
p1179
sI1176
V5.99
p1180
sI1177
V2.99
p1181
sI1178
V1.99
p1182
sI1179
V4.99
p1183
sI1180
V39.99
p1184
sI1181
V9.99
p1185
sI1182
V29.99
p1186
sI1183
V4.99
p1187
sI1184
V14.99
p1188
sI1185
V4.99
p1189
sI1186
V19.99
p1190
sI1187
V2.99
p1191
sI1188
V19.99
p1192
sI1189
V14.99
p1193
sI1190
V4.99
p1194
sI1191
V4.99
p1195
sI1192
V1.99
p1196
sI1193
V11.99
p1197
sI1194
V0.49
p1198
sI1195
V4.99
p1199
sI1196
V1.99
p1200
sI1197
V19.99
p1201
sI1198
V12.99
p1202
sI1199
V2.99
p1203
sI1200
V4.99
p1204
sI1201
V2.99
p1205
sI1202
V12.99
p1206
sI1203
V4.99
p1207
sI1204
V18.74
p1208
sI1205
V4.99
p1209
sI1206
V9.99
p1210
sI1207
V3.99
p1211
sI1208
V29.99
p1212
sI1209
V3.99
p1213
sI1210
V4.99
p1214
sI1211
V4.99
p1215
sI1212
V9.99
p1216
sI1213
V4.99
p1217
sI1214
V9.99
p1218
sI1215
V9.99
p1219
sI1216
V14.99
p1220
sI1217
V3.99
p1221
sI1218
V1.99
p1222
sI1219
V1.99
p1223
sI1220
V1.99
p1224
sI1221
V1.99
p1225
sI1222
V7.99
p1226
sI1223
V1.99
p1227
sI1224
V1.99
p1228
sI1225
V1.99
p1229
sI1226
V1.99
p1230
sI1227
V1.99
p1231
sI1228
V1.99
p1232
sI1229
V1.99
p1233
sI1230
V1.99
p1234
sI1231
V4.99
p1235
sI1232
V4.99
p1236
sI1233
V4.99
p1237
sI1234
V2.99
p1238
sI1235
V6.99
p1239
sI1236
V6.99
p1240
sI1237
V18.99
p1241
sI1238
V3.99
p1242
sI1239
V2.99
p1243
sI1240
V4.99
p1244
sI1241
V4.99
p1245
sI1242
V4.99
p1246
sI1243
V14.99
p1247
sI1244
V4.99
p1248
sI1245
V14.99
p1249
sI1246
V0.99
p1250
sI1247
V0.99
p1251
sI1248
V9.99
p1252
sI1249
V9.99
p1253
sI1250
V9.99
p1254
sI1251
V0.99
p1255
sI1252
V3.99
p1256
sI1253
V3.99
p1257
sI1254
V14.99
p1258
sI1255
V1.99
p1259
sI1256
V14.99
p1260
sI1257
V5.99
p1261
sI1258
V6.99
p1262
sI1259
V3.99
p1263
sI1260
V0.99
p1264
sI1261
V2.99
p1265
sI1262
V6.99
p1266
sI1263
V4.99
p1267
sI1264
V29.99
p1268
sI1265
V29.99
p1269
sI1266
V0.99
p1270
sI1267
V2.49
p1271
sI1268
V9.99
p1272
sI1269
V2.99
p1273
sI1270
V3.99
p1274
sI1271
V3.99
p1275
sI1272
V19.99
p1276
sI1273
V2.49
p1277
sI1274
V7.99
p1278
sI1275
V4.99
p1279
sI1276
V4.99
p1280
sI1277
V9.99
p1281
sI1278
V17.99
p1282
sI1279
V19.99
p1283
sI1280
V9.99
p1284
sI1281
V19.99
p1285
sI1282
V2.99
p1286
sI1283
V2.99
p1287
sI1284
V2.74
p1288
sI1285
V4.99
p1289
sI1286
V6.99
p1290
sI1287
V2.49
p1291
sI1288
V2.99
p1292
sI1289
V4.99
p1293
sI1290
V6.99
p1294
sI1291
V39.99
p1295
sI1292
V6.99
p1296
sI1293
V6.99
p1297
sI1294
V1.99
p1298
sI1295
V1.99
p1299
sI1296
V5.99
p1300
sI1297
V2.99
p1301
sI1298
V6.99
p1302
sI1299
V4.99
p1303
sI1300
V4.99
p1304
sI1301
V6.99
p1305
sI1302
V11.99
p1306
sI1303
V2.99
p1307
sI1304
V1.99
p1308
sI1305
V0.99
p1309
sI1306
V6.99
p1310
sI1307
V9.99
p1311
sI1308
V29.99
p1312
sI1309
V4.99
p1313
sI1310
V4.99
p1314
sI1311
V9.99
p1315
sI1312
V2.99
p1316
sI1313
V0.99
p1317
sI1314
V6.99
p1318
sI1315
V4.99
p1319
sI1316
V4.99
p1320
sI1317
V1.99
p1321
sI1318
V3.99
p1322
sI1319
V0.99
p1323
sI1320
V4.99
p1324
sI1321
V4.99
p1325
sI1322
V0.99
p1326
sI1323
V9.99
p1327
sI1324
V4.99
p1328
sI1325
V14.99
p1329
sI1326
V4.99
p1330
sI1327
V4.99
p1331
sI1328
V9.99
p1332
sI1329
V0.99
p1333
sI1330
V4.99
p1334
sI1331
V9.99
p1335
sI1332
V29.99
p1336
sI1333
V1.99
p1337
sI1334
V7.99
p1338
sI1335
V9.99
p1339
sI1336
V4.99
p1340
sI1337
V7.99
p1341
sI1338
V12.99
p1342
sI1339
V2.99
p1343
sI1340
V2.99
p1344
sI1341
V2.99
p1345
sI1342
V2.99
p1346
sI1343
V2.99
p1347
sI1344
V2.99
p1348
sI1345
V2.99
p1349
sI1346
V2.99
p1350
sI1347
V2.99
p1351
sI1348
V4.99
p1352
sI1349
V9.99
p1353
sI1350
V9.99
p1354
sI1351
V4.99
p1355
sI1352
V0.99
p1356
sI1353
V14.99
p1357
sI1354
V4.99
p1358
sI1355
V1.99
p1359
sI1356
V1.99
p1360
sI1357
V1.99
p1361
sI1358
V1.99
p1362
sI1359
V1.99
p1363
sI1360
V1.99
p1364
sI1361
V1.99
p1365
sI1362
V1.99
p1366
sI1363
V1.99
p1367
sI1364
V1.99
p1368
sI1365
V1.99
p1369
sI1366
V1.99
p1370
sI1367
V29.99
p1371
sI1368
V3.99
p1372
sI1369
V9.99
p1373
sI1370
V0.99
p1374
sI1371
V0.99
p1375
sI1372
V0.99
p1376
sI1373
V0.99
p1377
sI1374
V0.99
p1378
sI1375
V0.99
p1379
sI1376
V0.99
p1380
sI1377
V0.99
p1381
sI1378
V0.99
p1382
sI1379
V0.99
p1383
sI1380
V3.99
p1384
sI1381
V0.99
p1385
sI1382
V1.99
p1386
sI1383
V1.99
p1387
sI1384
V0.99
p1388
sI1385
V0.99
p1389
sI1386
V0.99
p1390
sI1387
V2.99
p1391
sI1388
V4.99
p1392
sI1389
V2.99
p1393
sI1390
V3.99
p1394
sI1391
V1.99
p1395
sI1392
V1.99
p1396
sI1393
V1.99
p1397
sI1394
V0.99
p1398
sI1395
V0.99
p1399
sI1396
V9.99
p1400
sI1397
V0.99
p1401
sI1398
V1.99
p1402
sI1399
V4.99
p1403
sI1400
V3.99
p1404
sI1401
V4.99
p1405
sI1402
V8.99
p1406
sI1403
V0.99
p1407
sI1404
V4.99
p1408
sI1405
V1.99
p1409
sI1406
V29.99
p1410
sI1407
V1.99
p1411
sI1408
V1.99
p1412
sI1409
V1.99
p1413
sI1410
V1.99
p1414
sI1411
V1.99
p1415
sI1412
V1.99
p1416
sI1413
V1.99
p1417
sI1414
V1.99
p1418
sI1415
V1.99
p1419
sI1416
V1.99
p1420
sI1417
V1.99
p1421
sI1418
V3.49
p1422
sI1419
V1.99
p1423
sI1420
V1.99
p1424
sI1421
V1.99
p1425
sI1422
V1.99
p1426
sI1423
V1.99
p1427
sI1424
V1.99
p1428
sI1425
V1.99
p1429
sI1426
V1.99
p1430
sI1427
V1.99
p1431
sI1428
V1.99
p1432
sI1429
V1.99
p1433
sI1430
V1.99
p1434
sI1431
V1.99
p1435
sI1432
V6.99
p1436
sI1433
V1.99
p1437
sI1434
V1.99
p1438
sI1435
V1.99
p1439
sI1436
V1.99
p1440
sI1437
V1.99
p1441
sI1438
V1.99
p1442
sI1439
V1.99
p1443
sI1440
V1.99
p1444
sI1441
V1.99
p1445
sI1442
V1.99
p1446
sI1443
V1.99
p1447
sI1444
V1.99
p1448
sI1445
V1.99
p1449
sI1446
V6.99
p1450
sI1447
V5.99
p1451
sI1448
V6.99
p1452
sI1449
V4.99
p1453
sI1450
V4.99
p1454
sI1451
V6.99
p1455
sI1452
V13.99
p1456
sI1453
V1.99
p1457
sI1454
V24.99
p1458
sI1455
V5.99
p1459
sI1456
V2.99
p1460
sI1457
V6.99
p1461
sI1458
V4.99
p1462
sI1459
V2.49
p1463
sI1460
V9.99
p1464
sI1461
V9.99
p1465
sI1462
V1.99
p1466
sI1463
V4.99
p1467
sI1464
V5.99
p1468
sI1465
V9.99
p1469
sI1466
V7.99
p1470
sI1467
V19.99
p1471
sI1468
V1.99
p1472
sI1469
V2.99
p1473
sI1470
V9.99
p1474
sI1471
V3.99
p1475
sI1472
V9.99
p1476
sI1473
V4.99
p1477
sI1474
V6.99
p1478
sI1475
V1.99
p1479
sI1476
V9.99
p1480
sI1477
V9.99
p1481
sI1478
V1.99
p1482
sI1479
V4.99
p1483
sI1480
V13.99
p1484
sI1481
V1.99
p1485
sI1482
V3.99
p1486
sI1483
V9.99
p1487
sI1484
V4.99
p1488
sI1485
V14.99
p1489
sI1486
V0.99
p1490
sI1487
V1.99
p1491
sI1488
V24.99
p1492
sI1489
V0.99
p1493
sI1490
V6.99
p1494
sI1491
V6.99
p1495
sI1492
V4.99
p1496
sI1493
V0.99
p1497
sI1494
V9.99
p1498
sI1495
V24.99
p1499
sI1496
V4.99
p1500
sI1497
V1.99
p1501
sI1498
V3.99
p1502
sI1499
V1.99
p1503
sI1500
V9.99
p1504
sI1501
V1.99
p1505
sI1502
V1.99
p1506
sI1503
V6.99
p1507
sI1504
V4.99
p1508
sI1505
V1.99
p1509
sI1506
V1.99
p1510
sI1507
V4.99
p1511
sI1508
V5.99
p1512
sI1509
V4.99
p1513
sI1510
V6.99
p1514
sI1511
V3.99
p1515
sI1512
V1.99
p1516
sI1513
V4.99
p1517
sI1514
V3.99
p1518
sI1515
V1.99
p1519
sI1516
V17.99
p1520
sI1517
V9.99
p1521
sI1518
V12.89
p1522
sI1519
V1.99
p1523
sI1520
V11.99
p1524
sI1521
V7.99
p1525
sI1522
V12.99
p1526
sI1523
V2.99
p1527
sI1524
V2.99
p1528
sI1525
V2.99
p1529
sI1526
V2.99
p1530
sI1527
V2.99
p1531
sI1528
V2.99
p1532
sI1529
V2.99
p1533
sI1530
V2.99
p1534
sI1531
V2.99
p1535
sI1532
V2.99
p1536
sI1533
V2.99
p1537
sI1534
V2.99
p1538
sI1535
V7.99
p1539
sI1536
V1.99
p1540
sI1537
V9.99
p1541
sI1538
V19.99
p1542
sI1539
V59.99
p1543
sI1540
V0.99
p1544
sI1541
V4.99
p1545
sI1542
V9.99
p1546
sI1543
V4.99
p1547
sI1544
V29.99
p1548
sI1545
V4.99
p1549
sI1546
V14.99
p1550
sI1547
V19.99
p1551
sI1548
V4.99
p1552
sI1549
V9.99
p1553
sI1550
V0.99
p1554
sI1551
V2.99
p1555
sI1552
V4.00
p1556
sI1553
V14.99
p1557
sI1554
V19.99
p1558
sI1555
V1.99
p1559
sI1556
V0.99
p1560
sI1557
V4.00
p1561
sI1558
V6.99
p1562
sI1559
V1.99
p1563
sI1560
V19.99
p1564
sI1561
V1.99
p1565
sI1562
V4.00
p1566
sI1563
V4.00
p1567
sI1564
V7.99
p1568
sI1565
V4.99
p1569
sI1566
V49.99
p1570
sI1567
V4.99
p1571
sI1568
V5.99
p1572
sI1569
V9.99
p1573
sI1570
V1.99
p1574
sI1571
V5.99
p1575
sI1572
V29.99
p1576
sI1573
V0.99
p1577
sI1574
V9.99
p1578
sI1575
V24.99
p1579
sI1576
V4.99
p1580
sI1577
V0.99
p1581
sI1578
V4.99
p1582
sI1579
V0.99
p1583
sI1580
V14.99
p1584
sI1581
V12.99
p1585
sI1582
V9.99
p1586
sI1583
V9.99
p1587
sI1584
V8.99
p1588
sI1585
V4.99
p1589
sI1586
V29.99
p1590
sI1587
V19.99
p1591
sI1588
V14.99
p1592
sI1589
V6.66
p1593
sI1590
V14.99
p1594
sI1591
V6.66
p1595
sI1592
V13.99
p1596
sI1593
V14.99
p1597
sI1594
V9.99
p1598
sI1595
V9.99
p1599
sI1596
V1.99
p1600
sI1597
V19.99
p1601
sI1598
V4.99
p1602
sI1599
V1.99
p1603
sI1600
V2.99
p1604
sI1601
V14.99
p1605
sI1602
V24.99
p1606
sI1603
V7.99
p1607
sI1604
V4.99
p1608
sI1605
V19.99
p1609
sI1606
V8.99
p1610
sI1607
V9.99
p1611
sI1608
V9.99
p1612
sI1609
V29.99
p1613
sI1610
V29.99
p1614
sI1611
V4.99
p1615
sI1612
V5.99
p1616
sI1613
V0.99
p1617
sI1614
V4.00
p1618
sI1615
V4.99
p1619
sI1616
V2.99
p1620
sI1617
V9.99
p1621
sI1618
V1.99
p1622
sI1619
V5.99
p1623
sI1620
V9.99
p1624
sI1621
V0.99
p1625
sI1622
V14.99
p1626
sI1623
V1.64
p1627
sI1624
V2.99
p1628
sI1625
V14.99
p1629
sI1626
V9.99
p1630
sI1627
V14.99
p1631
sI1628
V14.99
p1632
sI1629
V4.99
p1633
sI1630
V1.99
p1634
sI1631
V1.99
p1635
sI1632
V1.99
p1636
sI1633
V1.99
p1637
sI1634
V1.99
p1638
sI1635
V1.99
p1639
sI1636
V1.99
p1640
sI1637
V1.99
p1641
sI1638
V1.99
p1642
sI1639
V1.99
p1643
sI1640
V1.99
p1644
sI1641
V1.99
p1645
sI1642
V1.99
p1646
sI1643
V19.99
p1647
sI1644
V4.99
p1648
sI1645
V4.99
p1649
sI1646
V5.99
p1650
sI1647
V0.99
p1651
sI1648
V9.99
p1652
sI1649
V0.99
p1653
sI1650
V9.99
p1654
sI1651
V0.99
p1655
sI1652
V0.99
p1656
sI1653
V0.99
p1657
sI1654
V0.99
p1658
sI1655
V6.99
p1659
sI1656
V6.39
p1660
sI1657
V4.99
p1661
sI1658
V4.99
p1662
sI1659
V4.99
p1663
sI1660
V4.99
p1664
sI1661
V39.99
p1665
sI1662
V4.99
p1666
sI1663
V17.99
p1667
sI1664
V2.99
p1668
sI1665
V24.99
p1669
sI1666
V7.99
p1670
sI1667
V19.99
p1671
sI1668
V1.99
p1672
sI1669
V49.99
p1673
sI1670
V14.99
p1674
sI1671
V4.99
p1675
sI1672
V4.99
p1676
sI1673
V7.99
p1677
sI1674
V7.99
p1678
sI1675
V69.99
p1679
sI1676
V19.99
p1680
sI1677
V14.99
p1681
sI1678
V1.99
p1682
sI1679
V1.99
p1683
sI1680
V1.99
p1684
sI1681
V1.99
p1685
sI1682
V9.99
p1686
sI1683
V4.99
p1687
sI1684
V4.99
p1688
sI1685
V2.99
p1689
sI1686
V0.99
p1690
sI1687
V9.99
p1691
sI1688
V5.99
p1692
sI1689
V2.99
p1693
sI1690
V4.99
p1694
sI1691
V3.99
p1695
sI1692
V1.99
p1696
sI1693
V1.99
p1697
sI1694
V1.99
p1698
sI1695
V14.99
p1699
sI1696
V12.99
p1700
sI1697
V3.99
p1701
sI1698
V2.99
p1702
sI1699
V4.99
p1703
sI1700
V2.99
p1704
sI1701
V2.99
p1705
sI1702
V2.99
p1706
sI1703
V2.99
p1707
sI1704
V14.99
p1708
sI1705
V9.99
p1709
sI1706
V1.99
p1710
sI1707
V14.99
p1711
sI1708
V14.99
p1712
sI1709
V0.99
p1713
sI1710
V4.99
p1714
sI1711
V8.99
p1715
sI1712
V9.99
p1716
sI1713
V2.99
p1717
sI1714
V7.99
p1718
sI1715
V9.99
p1719
sI1716
V0.99
p1720
sI1717
V5.99
p1721
sI1718
V4.99
p1722
sI1719
V11.99
p1723
sI1720
V0.79
p1724
sI1721
V1.74
p1725
sI1722
V0.89
p1726
sI1723
V4.99
p1727
sI1724
V1.99
p1728
sI1725
V12.99
p1729
sI1726
V12.99
p1730
sI1727
V2.99
p1731
sI1728
V29.99
p1732
sI1729
V14.99
p1733
sI1730
V9.99
p1734
sI1731
V19.99
p1735
sI1732
V12.99
p1736
sI1733
V12.99
p1737
sI1734
V1.99
p1738
sI1735
V9.99
p1739
sI1736
V14.99
p1740
sI1737
V4.99
p1741
sI1738
V4.99
p1742
sI1739
V3.99
p1743
sI1740
V3.99
p1744
sI1741
V2.99
p1745
sI1742
V4.99
p1746
sI1743
V1.99
p1747
sI1744
V2.99
p1748
sI1745
V1.99
p1749
sI1746
V9.99
p1750
sI1747
V6.99
p1751
sI1748
V9.99
p1752
sI1749
V9.99
p1753
sI1750
V9.99
p1754
sI1751
V5.99
p1755
sI1752
V9.99
p1756
sI1753
V14.99
p1757
sI1754
V1.99
p1758
sI1755
V4.99
p1759
sI1756
V4.99
p1760
sI1757
V2.99
p1761
sI1758
V1.99
p1762
sI1759
V2.99
p1763
sI1760
V3.99
p1764
sI1761
V4.99
p1765
sI1762
V9.99
p1766
sI1763
V1.99
p1767
sI1764
V14.99
p1768
sI1765
V6.99
p1769
sI1766
V14.99
p1770
sI1767
V19.99
p1771
sI1768
V4.99
p1772
sI1769
V4.99
p1773
sI1770
V9.99
p1774
sI1771
V0.99
p1775
sI1772
V4.99
p1776
sI1773
V14.99
p1777
sI1774
V7.99
p1778
sI1775
V2.99
p1779
sI1776
V19.99
p1780
sI1777
V14.99
p1781
sI1778
V19.99
p1782
sI1779
V29.99
p1783
sI1780
V14.99
p1784
sI1781
V14.99
p1785
sI1782
V9.99
p1786
sI1783
V0.99
p1787
sI1784
V9.99
p1788
sI1785
V9.99
p1789
sI1786
V5.99
p1790
sI1787
V4.99
p1791
sI1788
V9.99
p1792
sI1789
V2.99
p1793
sI1790
V1.99
p1794
sI1791
V4.99
p1795
sI1792
V9.99
p1796
sI1793
V0.99
p1797
sI1794
V0.99
p1798
sI1795
V0.99
p1799
sI1796
V2.99
p1800
sI1797
V19.99
p1801
sI1798
V9.99
p1802
sI1799
V19.29
p1803
sI1800
V2.99
p1804
sI1801
V19.99
p1805
sI1802
V6.99
p1806
sI1803
V14.99
p1807
sI1804
V0.99
p1808
sI1805
V1.99
p1809
sI1806
V2.99
p1810
sI1807
V1.99
p1811
sI1808
V0.99
p1812
sI1809
V2.49
p1813
sI1810
V3.99
p1814
sI1811
V2.99
p1815
sI1812
V2.49
p1816
sI1813
V4.99
p1817
sI1814
V3.99
p1818
sI1815
V8.99
p1819
sI1816
V4.99
p1820
sI1817
V14.99
p1821
sI1818
V14.99
p1822
sI1819
V1.99
p1823
sI1820
V14.99
p1824
sI1821
V9.99
p1825
sI1822
V1.99
p1826
sI1823
V24.99
p1827
sI1824
V29.99
p1828
sI1825
V4.99
p1829
sI1826
V3.99
p1830
sI1827
V7.99
p1831
sI1828
V4.99
p1832
sI1829
V19.99
p1833
sI1830
V39.99
p1834
sI1831
V35.99
p1835
sI1832
V29.99
p1836
sI1833
V9.99
p1837
sI1834
V4.99
p1838
sI1835
V2.49
p1839
sI1836
V19.99
p1840
sI1837
V9.99
p1841
sI1838
V9.99
p1842
sI1839
V4.99
p1843
sI1840
V4.99
p1844
sI1841
V4.99
p1845
sI1842
V0.79
p1846
sI1843
V9.99
p1847
sI1844
V2.99
p1848
sI1845
V9.99
p1849
sI1846
V1.99
p1850
sI1847
V0.99
p1851
sI1848
V27.99
p1852
sI1849
V4.99
p1853
sI1850
V4.99
p1854
sI1851
V6.99
p1855
sI1852
V9.99
p1856
sI1853
V1.99
p1857
sI1854
V29.99
p1858
sI1855
V7.99
p1859
sI1856
V9.99
p1860
sI1857
V1.99
p1861
sI1858
V14.99
p1862
sI1859
V14.99
p1863
sI1860
V14.99
p1864
sI1861
V2.99
p1865
sI1862
V24.99
p1866
sI1863
V3.99
p1867
sI1864
V4.99
p1868
sI1865
V3.99
p1869
sI1866
V9.99
p1870
sI1867
V0.90
p1871
sI1868
V3.99
p1872
sI1869
V0.99
p1873
sI1870
V4.99
p1874
sI1871
V0.99
p1875
sI1872
V19.99
p1876
sI1873
V1.79
p1877
sI1874
V3.39
p1878
sI1875
V3.39
p1879
sI1876
V9.99
p1880
sI1877
V4.99
p1881
sI1878
V14.99
p1882
sI1879
V4.99
p1883
sI1880
V0.99
p1884
sI1881
V0.99
p1885
sI1882
V19.99
p1886
sI1883
V3.99
p1887
sI1884
V0.99
p1888
sI1885
V5.99
p1889
sI1886
V4.99
p1890
sI1887
V29.99
p1891
sI1888
V14.99
p1892
sI1889
V3.99
p1893
sI1890
V4.99
p1894
sI1891
V5.99
p1895
sI1892
V3.99
p1896
sI1893
V8.99
p1897
sI1894
V0.99
p1898
sI1895
V4.99
p1899
sI1896
V0.99
p1900
sI1897
V24.99
p1901
sI1898
V29.99
p1902
sI1899
V1.99
p1903
sI1900
V24.99
p1904
sI1901
V29.99
p1905
sI1902
V2.99
p1906
sI1903
V9.99
p1907
sI1904
V14.99
p1908
sI1905
V49.99
p1909
sI1906
V4.99
p1910
sI1907
V4.99
p1911
sI1908
V9.99
p1912
sI1909
V3.99
p1913
sI1910
V9.99
p1914
sI1911
V4.99
p1915
sI1912
V4.99
p1916
sI1913
V19.99
p1917
sI1914
V3.99
p1918
sI1915
V1.49
p1919
sI1916
V4.99
p1920
sI1917
V2.99
p1921
sI1918
V0.99
p1922
sI1919
V9.99
p1923
sI1920
V9.99
p1924
sI1921
V3.99
p1925
sI1922
V39.99
p1926
sI1923
V1.99
p1927
sI1924
V1.99
p1928
sI1925
V1.99
p1929
sI1926
V1.99
p1930
sI1927
V1.99
p1931
sI1928
V0.99
p1932
sI1929
V9.99
p1933
sI1930
V1.99
p1934
sI1931
V2.99
p1935
sI1932
V2.99
p1936
sI1933
V4.99
p1937
sI1934
V0.99
p1938
sI1935
V1.99
p1939
sI1936
V0.99
p1940
sI1937
V9.99
p1941
sI1938
V9.99
p1942
sI1939
V0.99
p1943
sI1940
V5.99
p1944
sI1941
V12.99
p1945
sI1942
V5.99
p1946
sI1943
V7.99
p1947
sI1944
V2.99
p1948
sI1945
V12.99
p1949
sI1946
V14.99
p1950
sI1947
V0.99
p1951
sI1948
V39.99
p1952
sI1949
V12.99
p1953
sI1950
V14.99
p1954
sI1951
V4.99
p1955
sI1952
V7.99
p1956
sI1953
V0.99
p1957
sI1954
V79.99
p1958
sI1955
V19.99
p1959
sI1956
V14.99
p1960
sI1957
V12.99
p1961
sI1958
V0.99
p1962
sI1959
V8.99
p1963
sI1960
V24.99
p1964
sI1961
V9.99
p1965
sI1962
V2.99
p1966
sI1963
V4.99
p1967
sI1964
V1.99
p1968
sI1965
V19.99
p1969
sI1966
V1.99
p1970
sI1967
V0.49
p1971
sI1968
V4.99
p1972
sI1969
V9.99
p1973
sI1970
V7.99
p1974
sI1971
V9.99
p1975
sI1972
V0.99
p1976
sI1973
V0.99
p1977
sI1974
V0.99
p1978
sI1975
V0.99
p1979
sI1976
V14.99
p1980
sI1977
V2.99
p1981
sI1978
V2.99
p1982
sI1979
V2.99
p1983
sI1980
V2.99
p1984
sI1981
V5.99
p1985
sI1982
V12.99
p1986
sI1983
V9.99
p1987
sI1984
V7.99
p1988
sI1985
V9.99
p1989
sI1986
V1.99
p1990
sI1987
V6.99
p1991
sI1988
V9.99
p1992
sI1989
V7.99
p1993
sI1990
V6.99
p1994
sI1991
V19.99
p1995
sI1992
V9.99
p1996
sI1993
V1.99
p1997
sI1994
V8.99
p1998
sI1995
V9.99
p1999
sI1996
V2.99
p2000
sI1997
V7.99
p2001
sI1998
V14.99
p2002
sI1999
V0.99
p2003
sI2000
V0.89
p2004
sI2001
V4.99
p2005
sI2002
V1.99
p2006
sI2003
V9.99
p2007
sI2004
V4.99
p2008
sI2005
V9.99
p2009
sI2006
V9.99
p2010
sI2007
V12.99
p2011
sI2008
V9.99
p2012
sI2009
V5.99
p2013
sI2010
V0.99
p2014
sI2011
V1.99
p2015
sI2012
V0.59
p2016
sI2013
V4.99
p2017
sI2014
V0.49
p2018
sI2015
V2.99
p2019
sI2016
V6.99
p2020
sI2017
V2.99
p2021
sI2018
V14.99
p2022
sI2019
V29.99
p2023
sI2020
V0.99
p2024
sI2021
V9.99
p2025
sI2022
V19.99
p2026
sI2023
V6.99
p2027
sI2024
V7.99
p2028
sI2025
V14.99
p2029
sI2026
V6.99
p2030
sI2027
V4.99
p2031
sI2028
V7.99
p2032
sI2029
V9.99
p2033
sI2030
V1.99
p2034
sI2031
V7.99
p2035
sI2032
V4.99
p2036
sI2033
V9.99
p2037
sI2034
V4.99
p2038
sI2035
V9.99
p2039
sI2036
V12.99
p2040
sI2037
V2.99
p2041
sI2038
V34.99
p2042
sI2039
V0.51
p2043
sI2040
V2.99
p2044
sI2041
V29.99
p2045
sI2042
V0.89
p2046
sI2043
V7.99
p2047
sI2044
V9.99
p2048
sI2045
V19.99
p2049
sI2046
V19.99
p2050
sI2047
V14.99
p2051
sI2048
V26.99
p2052
sI2049
V1.99
p2053
sI2050
V3.00
p2054
sI2051
V59.99
p2055
sI2052
V4.99
p2056
sI2053
V12.99
p2057
sI2054
V1.99
p2058
sI2055
V3.99
p2059
sI2056
V19.99
p2060
sI2057
V11.99
p2061
sI2058
V14.99
p2062
sI2059
V0.99
p2063
sI2060
V4.99
p2064
sI2061
V14.99
p2065
sI2062
V7.99
p2066
sI2063
V0.99
p2067
sI2064
V2.99
p2068
sI2065
V7.99
p2069
sI2066
V4.99
p2070
sI2067
V4.99
p2071
sI2068
V5.99
p2072
sI2069
V4.99
p2073
sI2070
V0.99
p2074
sI2071
V14.99
p2075
sI2072
V4.99
p2076
sI2073
V0.99
p2077
sI2074
V4.99
p2078
sI2075
V3.99
p2079
sI2076
V0.49
p2080
sI2077
V4.99
p2081
sI2078
V0.99
p2082
sI2079
V2.99
p2083
sI2080
V4.99
p2084
sI2081
V4.99
p2085
sI2082
V7.99
p2086
sI2083
V1.99
p2087
sI2084
V9.99
p2088
sI2085
V4.99
p2089
sI2086
V14.99
p2090
sI2087
V0.99
p2091
sI2088
V9.99
p2092
sI2089
V4.99
p2093
sI2090
V7.99
p2094
sI2091
V3.99
p2095
sI2092
V7.99
p2096
sI2093
V9.99
p2097
sI2094
V4.99
p2098
sI2095
V7.99
p2099
sI2096
V7.99
p2100
sI2097
V9.99
p2101
sI2098
V4.99
p2102
sI2099
V6.99
p2103
sI2100
V2.99
p2104
sI2101
V19.99
p2105
sI2102
V4.99
p2106
sI2103
V2.99
p2107
sI2104
V10.99
p2108
sI2105
V29.99
p2109
sI2106
V1.99
p2110
sI2107
V7.99
p2111
sI2108
V14.99
p2112
sI2109
V4.99
p2113
sI2110
V9.99
p2114
sI2111
V2.99
p2115
sI2112
V2.99
p2116
sI2113
V2.99
p2117
sI2114
V59.99
p2118
sI2115
V1.99
p2119
sI2116
V5.99
p2120
sI2117
V4.99
p2121
sI2118
V14.99
p2122
sI2119
V4.99
p2123
sI2120
V4.99
p2124
sI2121
V4.99
p2125
sI2122
V4.99
p2126
sI2123
V0.99
p2127
sI2124
V19.99
p2128
sI2125
V1.99
p2129
sI2126
V0.99
p2130
sI2127
V9.99
p2131
sI2128
V1.99
p2132
sI2129
V1.99
p2133
sI2130
V5.99
p2134
sI2131
V0.99
p2135
sI2132
V2.99
p2136
sI2133
V0.99
p2137
sI2134
V9.99
p2138
sI2135
V9.99
p2139
sI2136
V1.99
p2140
sI2137
V4.99
p2141
sI2138
V4.99
p2142
sI2139
V4.99
p2143
sI2140
V4.99
p2144
sI2141
V7.99
p2145
sI2142
V0.99
p2146
sI2143
V9.99
p2147
sI2144
V9.99
p2148
sI2145
V9.99
p2149
sI2146
V4.99
p2150
sI2147
V29.99
p2151
sI2148
V19.99
p2152
sI2149
V4.99
p2153
sI2150
V7.49
p2154
sI2151
V2.99
p2155
sI2152
V9.99
p2156
sI2153
V5.99
p2157
sI2154
V0.59
p2158
sI2155
V11.99
p2159
sI2156
V11.99
p2160
sI2157
V0.99
p2161
sI2158
V4.99
p2162
sI2159
V14.99
p2163
sI2160
V0.99
p2164
sI2161
V9.99
p2165
sI2162
V24.99
p2166
sI2163
V15.99
p2167
sI2164
V19.99
p2168
sI2165
V0.99
p2169
sI2166
V34.99
p2170
sI2167
V19.99
p2171
sI2168
V9.99
p2172
sI2169
V1.99
p2173
sI2170
V19.99
p2174
sI2171
V0.99
p2175
sI2172
V9.99
p2176
sI2173
V3.99
p2177
sI2174
V2.99
p2178
sI2175
V7.99
p2179
sI2176
V0.99
p2180
sI2177
V14.99
p2181
sI2178
V0.99
p2182
sI2179
V1.99
p2183
sI2180
V1.99
p2184
sI2181
V19.99
p2185
sI2182
V6.99
p2186
sI2183
V1.99
p2187
sI2184
V3.99
p2188
sI2185
V2.99
p2189
sI2186
V2.99
p2190
sI2187
V4.99
p2191
sI2188
V9.99
p2192
sI2189
V6.99
p2193
sI2190
V14.99
p2194
sI2191
V14.99
p2195
sI2192
V29.99
p2196
sI2193
V3.99
p2197
sI2194
V4.99
p2198
sI2195
V0.99
p2199
sI2196
V3.99
p2200
sI2197
V2.99
p2201
sI2198
V4.99
p2202
sI2199
V0.99
p2203
sI2200
V10.00
p2204
sI2201
V29.99
p2205
sI2202
V4.99
p2206
sI2203
V6.99
p2207
sI2204
V14.99
p2208
sI2205
V19.99
p2209
sI2206
V4.99
p2210
sI2207
V24.99
p2211
sI2208
V0.99
p2212
sI2209
V4.99
p2213
sI2210
V9.99
p2214
sI2211
V4.99
p2215
sI2212
V24.99
p2216
sI2213
V0.99
p2217
sI2214
V19.99
p2218
sI2215
V19.99
p2219
sI2216
V4.99
p2220
sI2217
V14.99
p2221
sI2218
V9.99
p2222
sI2219
V19.99
p2223
sI2220
V4.99
p2224
sI2221
V1.99
p2225
sI2222
V9.99
p2226
sI2223
V7.99
p2227
sI2224
V9.99
p2228
sI2225
V19.99
p2229
sI2226
V9.99
p2230
sI2227
V0.99
p2231
sI2228
V9.99
p2232
sI2229
V0.99
p2233
sI2230
V9.99
p2234
sI2231
V7.99
p2235
sI2232
V7.99
p2236
sI2233
V4.00
p2237
sI2234
V9.99
p2238
sI2235
V14.99
p2239
sI2236
V4.00
p2240
sI2237
V6.99
p2241
sI2238
V4.00
p2242
sI2239
V5.99
p2243
sI2240
V0.99
p2244
sI2241
V4.99
p2245
sI2242
V3.49
p2246
sI2243
V4.49
p2247
sI2244
V1.99
p2248
sI2245
V4.00
p2249
sI2246
V0.74
p2250
sI2247
V4.00
p2251
sI2248
V0.99
p2252
sI2249
V4.99
p2253
sI2250
V3.99
p2254
sI2251
V3.99
p2255
sI2252
V1.99
p2256
sI2253
V3.99
p2257
sI2254
V3.99
p2258
sI2255
V3.99
p2259
sI2256
V4.99
p2260
sI2257
V1.99
p2261
sI2258
V3.99
p2262
sI2259
V4.99
p2263
sI2260
V2.99
p2264
sI2261
V4.00
p2265
sI2262
V5.99
p2266
sI2263
V4.00
p2267
sI2264
V0.49
p2268
sI2265
V14.99
p2269
sI2266
V1.99
p2270
sI2267
V1.99
p2271
sI2268
V1.99
p2272
sI2269
V1.99
p2273
sI2270
V1.99
p2274
sI2271
V1.99
p2275
sI2272
V1.99
p2276
sI2273
V1.99
p2277
sI2274
V1.99
p2278
sI2275
V1.99
p2279
sI2276
V1.99
p2280
sI2277
V1.99
p2281
sI2278
V1.99
p2282
sI2279
V0.99
p2283
sI2280
V4.99
p2284
sI2281
V9.99
p2285
sI2282
V0.99
p2286
sI2283
V0.99
p2287
sI2284
V0.99
p2288
sI2285
V1.99
p2289
sI2286
V1.99
p2290
sI2287
V1.99
p2291
sI2288
V1.99
p2292
sI2289
V1.99
p2293
sI2290
V1.99
p2294
sI2291
V1.99
p2295
sI2292
V1.99
p2296
sI2293
V1.99
p2297
sI2294
V1.99
p2298
sI2295
V1.99
p2299
sI2296
V0.99
p2300
sI2297
V2.99
p2301
sI2298
V1.99
p2302
sI2299
V1.99
p2303
sI2300
V1.99
p2304
sI2301
V1.99
p2305
sI2302
V1.99
p2306
sI2303
V1.99
p2307
sI2304
V1.99
p2308
sI2305
V1.99
p2309
sI2306
V1.99
p2310
sI2307
V1.99
p2311
sI2308
V1.99
p2312
sI2309
V2.99
p2313
sI2310
V9.99
p2314
sI2311
V3.99
p2315
sI2312
V2.99
p2316
sI2313
V19.99
p2317
sI2314
V14.99
p2318
sI2315
V1.99
p2319
sI2316
V1.99
p2320
sI2317
V1.99
p2321
sI2318
V1.99
p2322
sI2319
V9.99
p2323
sI2320
V1.99
p2324
sI2321
V1.99
p2325
sI2322
V1.99
p2326
sI2323
V1.99
p2327
sI2324
V1.99
p2328
sI2325
V1.99
p2329
sI2326
V1.99
p2330
sI2327
V6.99
p2331
sI2328
V1.99
p2332
sI2329
V1.99
p2333
sI2330
V1.99
p2334
sI2331
V1.99
p2335
sI2332
V1.99
p2336
sI2333
V1.99
p2337
sI2334
V1.99
p2338
sI2335
V1.99
p2339
sI2336
V1.99
p2340
sI2337
V1.99
p2341
sI2338
V1.99
p2342
sI2339
V1.99
p2343
sI2340
V8.99
p2344
sI2341
V34.99
p2345
sI2342
V1.99
p2346
sI2343
V13.99
p2347
sI2344
V3.49
p2348
sI2345
V6.99
p2349
sI2346
V7.99
p2350
sI2347
V9.99
p2351
sI2348
V3.99
p2352
sI2349
V0.50
p2353
sI2350
V14.99
p2354
sI2351
V0.99
p2355
sI2352
V0.99
p2356
sI2353
V3.99
p2357
sI2354
V3.99
p2358
sI2355
V6.99
p2359
sI2356
V8.99
p2360
sI2357
V0.99
p2361
sI2358
V1.99
p2362
sI2359
V6.99
p2363
sI2360
V9.99
p2364
sI2361
V6.99
p2365
sI2362
V14.99
p2366
sI2363
V5.99
p2367
sI2364
V7.99
p2368
sI2365
V4.99
p2369
sI2366
V24.99
p2370
sI2367
V6.99
p2371
sI2368
V6.99
p2372
sI2369
V6.99
p2373
sI2370
V14.99
p2374
sI2371
V0.99
p2375
sI2372
V19.99
p2376
sI2373
V9.99
p2377
sI2374
V1.99
p2378
sI2375
V19.99
p2379
sI2376
V19.99
p2380
sI2377
V14.99
p2381
sI2378
V6.99
p2382
sI2379
V1.99
p2383
sI2380
V1.99
p2384
sI2381
V6.99
p2385
sI2382
V4.99
p2386
sI2383
V4.99
p2387
sI2384
V19.99
p2388
sI2385
V9.99
p2389
sI2386
V19.99
p2390
sI2387
V7.99
p2391
sI2388
V9.99
p2392
sI2389
V0.59
p2393
sI2390
V9.99
p2394
sI2391
V8.99
p2395
sI2392
V2.99
p2396
sI2393
V1.59
p2397
sI2394
V7.99
p2398
sI2395
V6.99
p2399
sI2396
V9.99
p2400
sI2397
V6.99
p2401
sI2398
V3.99
p2402
sI2399
V3.99
p2403
sI2400
V2.99
p2404
sI2401
V6.99
p2405
sI2402
V9.99
p2406
sI2403
V9.99
p2407
sI2404
V1.99
p2408
sI2405
V19.99
p2409
sI2406
V5.99
p2410
sI2407
V1.49
p2411
sI2408
V5.99
p2412
sI2409
V6.99
p2413
sI2410
V2.99
p2414
sI2411
V19.99
p2415
sI2412
V8.99
p2416
sI2413
V2.99
p2417
sI2414
V19.99
p2418
sI2415
V1.99
p2419
sI2416
V5.99
p2420
sI2417
V14.99
p2421
sI2418
V24.99
p2422
sI2419
V4.99
p2423
sI2420
V4.99
p2424
sI2421
V4.99
p2425
sI2422
V1.99
p2426
sI2423
V4.99
p2427
sI2424
V1.99
p2428
sI2425
V0.99
p2429
sI2426
V4.99
p2430
sI2427
V1.99
p2431
sI2428
V3.49
p2432
sI2429
V14.99
p2433
sI2430
V9.99
p2434
sI2431
V19.99
p2435
sI2432
V4.00
p2436
sI2433
V19.99
p2437
sI2434
V5.49
p2438
sI2435
V5.49
p2439
sI2436
V7.49
p2440
sI2437
V0.99
p2441
sI2438
V4.99
p2442
sI2439
V14.99
p2443
sI2440
V3.49
p2444
sI2441
V3.99
p2445
sI2442
V9.99
p2446
sI2443
V4.99
p2447
sI2444
V8.99
p2448
sI2445
V4.99
p2449
sI2446
V14.99
p2450
sI2447
V1.99
p2451
sI2448
V12.99
p2452
sI2449
V1.99
p2453
sI2450
V1.99
p2454
sI2451
V31.99
p2455
sI2452
V0.99
p2456
sI2453
V7.99
p2457
sI2454
V4.99
p2458
sI2455
V18.99
p2459
sI2456
V4.99
p2460
sI2457
V8.99
p2461
sI2458
V0.99
p2462
sI2459
V9.99
p2463
sI2460
V3.99
p2464
sI2461
V0.99
p2465
sI2462
V9.99
p2466
sI2463
V0.99
p2467
sI2464
V14.99
p2468
sI2465
V4.99
p2469
sI2466
V9.99
p2470
sI2467
V15.99
p2471
sI2468
V4.99
p2472
sI2469
V19.99
p2473
sI2470
V4.99
p2474
sI2471
V19.99
p2475
sI2472
V19.99
p2476
sI2473
V4.99
p2477
sI2474
V8.99
p2478
sI2475
V1.49
p2479
sI2476
V4.99
p2480
sI2477
V19.99
p2481
sI2478
V2.99
p2482
sI2479
V3.99
p2483
sI2480
V1.99
p2484
sI2481
V19.99
p2485
sI2482
V3.99
p2486
sI2483
V5.99
p2487
sI2484
V6.99
p2488
sI2485
V6.99
p2489
sI2486
V3.99
p2490
sI2487
V3.99
p2491
sI2488
V3.99
p2492
sI2489
V2.99
p2493
sI2490
V9.99
p2494
sI2491
V6.99
p2495
sI2492
V1.99
p2496
sI2493
V0.99
p2497
sI2494
V3.99
p2498
sI2495
V14.99
p2499
sI2496
V9.99
p2500
sI2497
V0.99
p2501
sI2498
V4.99
p2502
sI2499
V49.99
p2503
sI2500
V7.99
p2504
sI2501
V1.49
p2505
sI2502
V0.99
p2506
sI2503
V19.99
p2507
sI2504
V9.99
p2508
sI2505
V0.99
p2509
sI2506
V3.99
p2510
sI2507
V34.99
p2511
sI2508
V1.99
p2512
sI2509
V6.99
p2513
sI2510
V4.00
p2514
sI2511
V14.99
p2515
sI2512
V7.49
p2516
sI2513
V4.99
p2517
sI2514
V9.99
p2518
sI2515
V6.99
p2519
sI2516
V19.99
p2520
sI2517
V0.99
p2521
sI2518
V19.99
p2522
sI2519
V3.99
p2523
sI2520
V1.99
p2524
sI2521
V4.99
p2525
sI2522
V9.99
p2526
sI2523
V0.99
p2527
sI2524
V1.99
p2528
sI2525
V3.99
p2529
sI2526
V2.99
p2530
sI2527
V2.99
p2531
sI2528
V4.99
p2532
sI2529
V1.99
p2533
sI2530
V4.99
p2534
sI2531
V4.99
p2535
sI2532
V24.99
p2536
sI2533
V9.99
p2537
sI2534
V0.99
p2538
sI2535
V9.99
p2539
sI2536
V4.99
p2540
sI2537
V16.99
p2541
sI2538
V49.99
p2542
sI2539
V0.49
p2543
sI2540
V9.99
p2544
sI2541
V4.99
p2545
sI2542
V9.99
p2546
sI2543
V14.99
p2547
sI2544
V29.99
p2548
sI2545
V59.99
p2549
sI2546
V4.99
p2550
sI2547
V8.99
p2551
sI2548
V0.99
p2552
sI2549
V4.99
p2553
sI2550
V0.99
p2554
sI2551
V1.99
p2555
sI2552
V0.99
p2556
sI2553
V9.99
p2557
sI2554
V0.99
p2558
sI2555
V0.99
p2559
sI2556
V1.99
p2560
sI2557
V3.99
p2561
sI2558
V2.99
p2562
sI2559
V1.99
p2563
sI2560
V1.99
p2564
sI2561
V1.99
p2565
sI2562
V0.51
p2566
sI2563
V49.99
p2567
sI2564
V9.99
p2568
sI2565
V4.00
p2569
sI2566
V2.99
p2570
sI2567
V6.99
p2571
sI2568
V5.99
p2572
sI2569
V5.99
p2573
sI2570
V1.99
p2574
sI2571
V11.99
p2575
sI2572
V1.99
p2576
sI2573
V9.99
p2577
sI2574
V7.99
p2578
sI2575
V4.99
p2579
sI2576
V3.99
p2580
sI2577
V1.99
p2581
sI2578
V1.99
p2582
sI2579
V2.99
p2583
sI2580
V24.99
p2584
sI2581
V9.99
p2585
sI2582
V1.99
p2586
sI2583
V1.99
p2587
sI2584
V1.99
p2588
sI2585
V4.99
p2589
sI2586
V1.99
p2590
sI2587
V1.99
p2591
sI2588
V1.99
p2592
sI2589
V1.99
p2593
sI2590
V6.99
p2594
sI2591
V3.99
p2595
sI2592
V12.99
p2596
sI2593
V1.99
p2597
sI2594
V0.99
p2598
sI2595
V12.99
p2599
sI2596
V0.99
p2600
sI2597
V9.99
p2601
sI2598
V14.99
p2602
sI2599
V12.99
p2603
sI2600
V44.99
p2604
sI2601
V4.99
p2605
sI2602
V9.99
p2606
sI2603
V9.99
p2607
sI2604
V3.99
p2608
sI2605
V0.99
p2609
sI2606
V14.99
p2610
sI2607
V0.99
p2611
sI2608
V9.99
p2612
sI2609
V1.99
p2613
sI2610
V4.99
p2614
sI2611
V4.99
p2615
sI2612
V0.99
p2616
sI2613
V14.99
p2617
sI2614
V2.99
p2618
sI2615
V3.99
p2619
sI2616
V9.99
p2620
sI2617
V1.99
p2621
sI2618
V14.99
p2622
sI2619
V19.99
p2623
sI2620
V2.99
p2624
sI2621
V0.99
p2625
sI2622
V39.99
p2626
sI2623
V5.99
p2627
sI2624
V1.99
p2628
sI2625
V1.99
p2629
sI2626
V2.99
p2630
sI2627
V0.84
p2631
sI2628
V19.99
p2632
sI2629
V1.99
p2633
sI2630
V2.99
p2634
sI2631
V9.99
p2635
sI2632
V1.99
p2636
sI2633
V2.99
p2637
sI2634
V9.99
p2638
sI2635
V2.99
p2639
sI2636
V1.99
p2640
sI2637
V39.99
p2641
sI2638
V1.99
p2642
sI2639
V9.99
p2643
sI2640
V1.99
p2644
sI2641
V39.99
p2645
sI2642
V2.49
p2646
sI2643
V1.49
p2647
sI2644
V1.49
p2648
sI2645
V2.49
p2649
sI2646
V3.99
p2650
sI2647
V0.89
p2651
sI2648
V2.49
p2652
sI2649
V2.49
p2653
sI2650
V2.49
p2654
sI2651
V2.49
p2655
sI2652
V69.99
p2656
sI2653
V2.49
p2657
sI2654
V2.49
p2658
sI2655
V1.49
p2659
sI2656
V34.99
p2660
sI2657
V4.99
p2661
sI2658
V0.99
p2662
sI2659
V0.99
p2663
sI2660
V0.99
p2664
sI2661
V0.99
p2665
sI2662
V1.99
p2666
sI2663
V0.99
p2667
sI2664
V3.99
p2668
sI2665
V3.99
p2669
sI2666
V4.99
p2670
sI2667
V7.99
p2671
sI2668
V2.99
p2672
sI2669
V19.99
p2673
sI2670
V9.99
p2674
sI2671
V6.99
p2675
sI2672
V9.99
p2676
sI2673
V1.99
p2677
sI2674
V13.99
p2678
sI2675
V2.99
p2679
sI2676
V4.99
p2680
sI2677
V4.49
p2681
sI2678
V4.99
p2682
sI2679
V29.99
p2683
sI2680
V4.99
p2684
sI2681
V4.99
p2685
sI2682
V7.99
p2686
sI2683
V9.99
p2687
sI2684
V4.99
p2688
sI2685
V9.99
p2689
sI2686
V4.99
p2690
sI2687
V4.99
p2691
sI2688
V4.99
p2692
sI2689
V4.99
p2693
sI2690
V8.99
p2694
sI2691
V4.99
p2695
sI2692
V2.99
p2696
sI2693
V4.99
p2697
sI2694
V0.99
p2698
sI2695
V0.99
p2699
sI2696
V0.99
p2700
sI2697
V0.99
p2701
sI2698
V0.99
p2702
sI2699
V0.99
p2703
sI2700
V0.99
p2704
sI2701
V0.99
p2705
sI2702
V4.99
p2706
sI2703
V4.99
p2707
sI2704
V4.99
p2708
sI2705
V8.99
p2709
sI2706
V6.99
p2710
sI2707
V49.99
p2711
sI2708
V0.99
p2712
sI2709
V9.99
p2713
sI2710
V4.99
p2714
sI2711
V7.99
p2715
sI2712
V5.99
p2716
sI2713
V0.99
p2717
sI2714
V4.99
p2718
sI2715
V5.99
p2719
sI2716
V5.99
p2720
sI2717
V1.99
p2721
sI2718
V19.99
p2722
sI2719
V19.99
p2723
sI2720
V19.99
p2724
sI2721
V49.99
p2725
sI2722
V3.99
p2726
sI2723
V14.99
p2727
sI2724
V0.49
p2728
sI2725
V9.99
p2729
sI2726
V2.49
p2730
sI2727
V2.49
p2731
sI2728
V9.99
p2732
sI2729
V1.99
p2733
sI2730
V9.99
p2734
sI2731
V9.99
p2735
sI2732
V2.99
p2736
sI2733
V0.99
p2737
sI2734
V0.99
p2738
sI2735
V9.99
p2739
sI2736
V4.99
p2740
sI2737
V9.99
p2741
sI2738
V1.99
p2742
sI2739
V14.99
p2743
sI2740
V2.99
p2744
sI2741
V29.99
p2745
sI2742
V3.99
p2746
sI2743
V14.99
p2747
sI2744
V12.99
p2748
sI2745
V14.99
p2749
sI2746
V1.99
p2750
sI2747
V4.99
p2751
sI2748
V4.99
p2752
sI2749
V14.99
p2753
sI2750
V0.99
p2754
sI2751
V0.99
p2755
sI2752
V13.99
p2756
sI2753
V0.99
p2757
sI2754
V4.99
p2758
sI2755
V8.99
p2759
sI2756
V13.99
p2760
sI2757
V4.99
p2761
sI2758
V1.99
p2762
sI2759
V13.99
p2763
sI2760
V12.99
p2764
sI2761
V5.99
p2765
sI2762
V13.99
p2766
sI2763
V14.99
p2767
sI2764
V3.99
p2768
sI2765
V1.99
p2769
sI2766
V13.99
p2770
sI2767
V4.99
p2771
sI2768
V54.99
p2772
sI2769
V29.99
p2773
sI2770
V1.99
p2774
sI2771
V39.99
p2775
sI2772
V0.99
p2776
sI2773
V5.99
p2777
sI2774
V3.99
p2778
sI2775
V4.99
p2779
sI2776
V9.99
p2780
sI2777
V9.99
p2781
sI2778
V14.99
p2782
sI2779
V14.99
p2783
sI2780
V6.99
p2784
sI2781
V9.99
p2785
sI2782
V0.99
p2786
sI2783
V0.99
p2787
sI2784
V29.99
p2788
sI2785
V1.99
p2789
sI2786
V0.99
p2790
sI2787
V12.99
p2791
sI2788
V19.99
p2792
sI2789
V19.99
p2793
sI2790
V14.99
p2794
sI2791
V2.99
p2795
sI2792
V11.99
p2796
sI2793
V18.99
p2797
sI2794
V1.99
p2798
sI2795
V4.99
p2799
sI2796
V8.99
p2800
sI2797
V4.99
p2801
sI2798
V2.49
p2802
sI2799
V9.99
p2803
sI2800
V14.99
p2804
sI2801
V3.99
p2805
sI2802
V11.99
p2806
sI2803
V9.99
p2807
sI2804
V4.99
p2808
sI2805
V6.99
p2809
sI2806
V6.99
p2810
sI2807
V8.99
p2811
sI2808
V4.99
p2812
sI2809
V5.99
p2813
sI2810
V4.99
p2814
sI2811
V5.99
p2815
sI2812
V4.99
p2816
sI2813
V6.99
p2817
sI2814
V39.99
p2818
sI2815
V8.99
p2819
sI2816
V3.99
p2820
sI2817
V14.99
p2821
sI2818
V14.99
p2822
s.