ccollections
defaultdict
p0
(c__builtin__
int
p1
tp2
Rp3
I0
I409600
sI1
I40960
sI2
I516100
sI3
I8200
sI4
I10
sI5
I258050
sI6
I8210
sI7
I20
sI8
I6830
sI9
I8220
sI10
I30
sI11
I434210
sI12
I8230
sI13
I40
sI14
I385070
sI15
I8240
sI16
I50
sI17
I409651
sI18
I409652
sI19
I333150
sI20
I467000
sI21
I8250
sI22
I60
sI23
I8260
sI24
I70
sI25
I524360
sI26
I8270
sI27
I204880
sI28
I401490
sI29
I475220
sI30
I467030
sI31
I467031
sI32
I467032
sI33
I467033
sI34
I286810
sI35
I467035
sI36
I467036
sI37
I467037
sI38
I467038
sI39
I467039
sI40
I467040
sI41
I467041
sI42
I467042
sI43
I467043
sI44
I467044
sI45
I467045
sI46
I467046
sI47
I467047
sI48
I467048
sI49
I467049
sI50
I467050
sI51
I467051
sI52
I8300
sI53
I286830
sI54
I333160
sI55
I262260
sI56
I348180
sI57
I491650
sI58
I516230
sI59
I426120
sI60
I8330
sI61
I409740
sI62
I47810
sI63
I376990
sI64
I24720
sI65
I8340
sI66
I409750
sI67
I270490
sI68
I303260
sI69
I8350
sI70
I327840
sI71
I24740
sI72
I344230
sI73
I8360
sI74
I453370
sI75
I450730
sI76
I237740
sI77
I46450
sI78
I385200
sI79
I8370
sI80
I450740
sI81
I8380
sI82
I450750
sI83
I462880
sI84
I316790
sI85
I499910
sI86
I311500
sI87
I385230
sI88
I377040
sI89
I428750
sI90
I24790
sI91
I377050
sI92
I491740
sI93
I24800
sI94
I376870
sI95
I299250
sI96
I24810
sI97
I453330
sI98
I240
sI99
I389160
sI100
I237810
sI101
I434420
sI102
I229621
sI103
I229622
sI104
I377080
sI105
I229626
sI106
I229627
sI107
I229628
sI108
I229629
sI109
I229630
sI110
I336130
sI111
I368900
sI112
I375510
sI113
I393480
sI114
I450830
sI115
I467220
sI116
I418070
sI117
I280
sI118
I303390
sI119
I415730
sI120
I24870
sI121
I57640
sI122
I300
sI123
I409650
sI124
I284040
sI125
I246070
sI126
I524600
sI127
I475450
sI128
I409653
sI129
I320
sI130
I293600
sI131
I319810
sI132
I434500
sI133
I418120
sI134
I246090
sI135
I319820
sI136
I319821
sI137
I352590
sI138
I426330
sI139
I246110
sI140
I350810
sI141
I360
sI142
I409660
sI143
I237930
sI144
I270700
sI145
I508270
sI146
I508271
sI147
I49520
sI148
I344440
sI149
I459130
sI150
I380
sI151
I24960
sI152
I344450
sI153
I24963
sI154
I418180
sI155
I311690
sI156
I418190
sI157
I400
sI158
I300440
sI159
I24980
sI160
I300441
sI161
I115100
sI162
I394730
sI163
I420
sI164
I61510
sI165
I115110
sI166
I16810
sI167
I369070
sI168
I115120
sI169
I434610
sI170
I508340
sI171
I238010
sI172
I65980
sI173
I442820
sI174
I270790
sI175
I377290
sI176
I483790
sI177
I16860
sI178
I16861
sI179
I16862
sI180
I16863
sI181
I80
sI182
I16866
sI183
I16867
sI184
I16868
sI185
I16870
sI186
I385511
sI187
I459240
sI188
I451050
sI189
I500
sI190
I47870
sI191
I410110
sI192
I401920
sI193
I262230
sI194
I238090
sI195
I352780
sI196
I459280
sI197
I8280
sI198
I352790
sI199
I500250
sI200
I287260
sI201
I467034
sI202
I262690
sI203
I336420
sI204
I550
sI205
I459310
sI206
I6920
sI207
I311860
sI208
I336440
sI209
I287290
sI210
I428810
sI211
I459330
sI212
I279990
sI213
I352840
sI214
I8290
sI215
I328270
sI216
I394680
sI217
I451160
sI218
I509032
sI219
I516700
sI220
I107104
sI221
I492130
sI222
I393830
sI223
I393831
sI224
I377450
sI225
I287340
sI226
I252690
sI227
I402030
sI228
I434800
sI229
I303730
sI230
I320120
sI231
I405610
sI232
I377470
sI233
I377480
sI234
I369290
sI235
I467600
sI236
I8850
sI237
I41070
sI238
I322330
sI239
I423365
sI240
I217200
sI241
I271010
sI242
I467620
sI243
I423366
sI244
I8870
sI245
I301720
sI246
I40940
sI247
I344750
sI248
I500400
sI249
I267720
sI250
I352950
sI251
I344770
sI252
I346730
sI253
I492240
sI254
I451290
sI255
I337360
sI256
I8930
sI257
I361190
sI258
I459500
sI259
I387880
sI260
I241790
sI261
I434940
sI262
I434941
sI263
I434942
sI264
I434943
sI265
I434944
sI266
I402180
sI267
I385800
sI268
I295690
sI269
I369420
sI270
I130
sI271
I344850
sI272
I8980
sI273
I288630
sI274
I353050
sI275
I353051
sI276
I353052
sI277
I353053
sI278
I8990
sI279
I425840
sI280
I402210
sI281
I385830
sI282
I410410
sI283
I516910
sI284
I418610
sI285
I328500
sI286
I341470
sI287
I400180
sI288
I467770
sI289
I33600
sI290
I525792
sI291
I394050
sI292
I456120
sI293
I443205
sI294
I525793
sI295
I451400
sI296
I450700
sI297
I33610
sI298
I509410
sI299
I385870
sI300
I377680
sI301
I492370
sI302
I230883
sI303
I501220
sI304
I320350
sI305
I230885
sI306
I435040
sI307
I320353
sI308
I254820
sI309
I525798
sI310
I492390
sI311
I492391
sI312
I361320
sI313
I320361
sI314
I476010
sI315
I516971
sI316
I516972
sI317
I516973
sI318
I516974
sI319
I516975
sI320
I516976
sI321
I516977
sI322
I516978
sI323
I516979
sI324
I516980
sI325
I516981
sI326
I516982
sI327
I230889
sI328
I254840
sI329
I315540
sI330
I320380
sI331
I525802
sI332
I320382
sI333
I320383
sI334
I320384
sI335
I320385
sI336
I320386
sI337
I230891
sI338
I320388
sI339
I517000
sI340
I386540
sI341
I459660
sI342
I366650
sI343
I451480
sI344
I402330
sI345
I467870
sI346
I254880
sI347
I451490
sI348
I410531
sI349
I33700
sI350
I426920
sI351
I426921
sI352
I426922
sI353
I426923
sI354
I451500
sI355
I426925
sI356
I33710
sI357
I426927
sI358
I426928
sI359
I379720
sI360
I385970
sI361
I336030
sI362
I492470
sI363
I33720
sI364
I525812
sI365
I207690
sI366
I50110
sI367
I409760
sI368
I33730
sI369
I254920
sI370
I355150
sI371
I230888
sI372
I525818
sI373
I410590
sI374
I33760
sI375
I478032
sI376
I312290
sI377
I459750
sI378
I464380
sI379
I394220
sI380
I478034
sI381
I17390
sI382
I426991
sI383
I426992
sI384
I426993
sI385
I451570
sI386
I426995
sI387
I426996
sI388
I353790
sI389
I426998
sI390
I426999
sI391
I427000
sI392
I478036
sI393
I427002
sI394
I427003
sI395
I427004
sI396
I427005
sI397
I402430
sI398
I427007
sI399
I427008
sI400
I448000
sI401
I467970
sI402
I478038
sI403
I279560
sI404
I478039
sI405
I457560
sI406
I312340
sI407
I290990
sI408
I17430
sI409
I17440
sI410
I446640
sI411
I300550
sI412
I238630
sI413
I345130
sI414
I267783
sI415
I312370
sI416
I17460
sI417
I267785
sI418
I451640
sI419
I320570
sI420
I435260
sI421
I222730
sI422
I508990
sI423
I301920
sI424
I394310
sI425
I17480
sI426
I396130
sI427
I493070
sI428
I451670
sI429
I478052
sI430
I353370
sI431
I451680
sI432
I321040
sI433
I402530
sI434
I353380
sI435
I478054
sI436
I509030
sI437
I509031
sI438
I337000
sI439
I517240
sI440
I500860
sI441
I238450
sI442
I381120
sI443
I500870
sI444
I42120
sI445
I525450
sI446
I337040
sI447
I226840
sI448
I42140
sI449
I443550
sI450
I435360
sI451
I304290
sI452
I517290
sI453
I517291
sI454
I517292
sI455
I351090
sI456
I1200
sI457
I443570
sI458
I488990
sI459
I509110
sI460
I42170
sI461
I402620
sI462
I476350
sI463
I476351
sI464
I476352
sI465
I206020
sI466
I345290
sI467
I492750
sI468
I449400
sI469
I312530
sI470
I206040
sI471
I1250
sI472
I456230
sI473
I271590
sI474
I263400
sI475
I1257
sI476
I500970
sI477
I456231
sI478
I206060
sI479
I427250
sI480
I255220
sI481
I492790
sI482
I320760
sI483
I311560
sI484
I416640
sI485
I443650
sI486
I270550
sI487
I419080
sI488
I410890
sI489
I509200
sI490
I419090
sI491
I312600
sI492
I99610
sI493
I99611
sI494
I99612
sI495
I99614
sI496
I345380
sI497
I501030
sI498
I451880
sI499
I220
sI500
I394540
sI501
I296240
sI502
I463070
sI503
I320830
sI504
I434400
sI505
I337220
sI506
I369990
sI507
I517450
sI508
I460120
sI509
I329050
sI510
I476510
sI511
I247140
sI512
I443750
sI513
I478030
sI514
I353640
sI515
I299240
sI516
I312690
sI517
I386420
sI518
I370040
sI519
I361850
sI520
I454890
sI521
I345470
sI522
I226880
sI523
I461850
sI524
I361880
sI525
I501150
sI526
I501151
sI527
I368880
sI528
I312740
sI529
I463090
sI530
I443830
sI531
I67000
sI532
I329150
sI533
I263620
sI534
I247240
sI535
I484810
sI536
I501200
sI537
I386520
sI538
I525790
sI539
I525791
sI540
I353760
sI541
I353761
sI542
I525794
sI543
I525795
sI544
I525796
sI545
I525797
sI546
I411110
sI547
I525799
sI548
I525800
sI549
I525801
sI550
I353770
sI551
I525803
sI552
I468460
sI553
I288240
sI554
I525810
sI555
I525811
sI556
I271860
sI557
I525813
sI558
I525814
sI559
I525815
sI560
I525816
sI561
I525817
sI562
I411130
sI563
I525819
sI564
I525820
sI565
I525821
sI566
I525822
sI567
I525823
sI568
I525830
sI569
I525831
sI570
I525832
sI571
I525833
sI572
I525834
sI573
I525835
sI574
I525836
sI575
I525837
sI576
I525838
sI577
I525839
sI578
I525840
sI579
I525841
sI580
I525842
sI581
I482222
sI582
I386590
sI583
I353830
sI584
I435760
sI585
I352520
sI586
I230892
sI587
I239160
sI588
I263740
sI589
I334773
sI590
I441270
sI591
I238530
sI592
I493130
sI593
I271950
sI594
I509520
sI595
I509521
sI596
I509522
sI597
I484950
sI598
I435800
sI599
I468580
sI600
I460390
sI601
I493160
sI602
I321140
sI603
I321141
sI604
I321142
sI605
I345720
sI606
I200980
sI607
I378490
sI608
I312960
sI609
I11200
sI610
I419460
sI611
I247430
sI612
I427660
sI613
I485020
sI614
I222880
sI615
I314200
sI616
I334790
sI617
I394920
sI618
I460460
sI619
I493230
sI620
I334793
sI621
I476860
sI622
I476861
sI623
I476862
sI624
I476863
sI625
I476864
sI626
I476865
sI627
I476866
sI628
I476867
sI629
I476868
sI630
I476869
sI631
I476870
sI632
I476871
sI633
I108232
sI634
I108233
sI635
I255690
sI636
I255691
sI637
I255692
sI638
I476880
sI639
I501460
sI640
I332580
sI641
I485080
sI642
I439930
sI643
I485090
sI644
I272100
sI645
I378610
sI646
I288500
sI647
I476920
sI648
I297940
sI649
I292480
sI650
I427780
sI651
I296710
sI652
I210561
sI653
I411400
sI654
I411401
sI655
I468750
sI656
I50960
sI657
I444180
sI658
I485141
sI659
I485142
sI660
I485143
sI661
I485144
sI662
I485145
sI663
I50970
sI664
I50980
sI665
I485160
sI666
I263980
sI667
I50990
sI668
I468790
sI669
I51000
sI670
I520500
sI671
I329530
sI672
I403260
sI673
I464524
sI674
I370510
sI675
I464525
sI676
I427860
sI677
I293860
sI678
I460640
sI679
I452450
sI680
I485220
sI681
I11240
sI682
I460660
sI683
I452470
sI684
I526200
sI685
I526201
sI686
I526202
sI687
I526203
sI688
I526204
sI689
I526205
sI690
I296830
sI691
I526207
sI692
I526208
sI693
I526209
sI694
I526210
sI695
I526211
sI696
I526212
sI697
I362380
sI698
I354190
sI699
I509840
sI700
I343280
sI701
I395160
sI702
I42910
sI703
I255910
sI704
I362410
sI705
I436140
sI706
I411570
sI707
I337850
sI708
I428880
sI709
I407200
sI710
I92100
sI711
I411590
sI712
I463180
sI713
I509900
sI714
I460750
sI715
I485330
sI716
I354260
sI717
I501720
sI718
I46440
sI719
I419810
sI720
I321510
sI721
I255980
sI722
I108200
sI723
I428020
sI724
I395260
sI725
I411650
sI726
I444420
sI727
I428040
sI728
I296970
sI729
I485390
sI730
I346140
sI731
I305181
sI732
I460830
sI733
I305183
sI734
I305184
sI735
I305185
sI736
I485410
sI737
I305187
sI738
I461890
sI739
I387110
sI740
I460840
sI741
I403500
sI742
I387120
sI743
I403510
sI744
I334774
sI745
I313400
sI746
I444480
sI747
I501830
sI748
I223313
sI749
I493650
sI750
I223315
sI751
I223316
sI752
I223317
sI753
I223318
sI754
I223319
sI755
I223320
sI756
I223321
sI757
I460890
sI758
I403550
sI759
I312680
sI760
I247910
sI761
I403560
sI762
I419951
sI763
I403570
sI764
I366270
sI765
I12650
sI766
I313480
sI767
I460940
sI768
I431810
sI769
I388120
sI770
I313500
sI771
I359450
sI772
I460960
sI773
I108230
sI774
I108231
sI775
I12660
sI776
I358090
sI777
I420030
sI778
I455030
sI779
I338120
sI780
I436430
sI781
I508280
sI782
I420050
sI783
I461020
sI784
I329950
sI785
I305390
sI786
I94590
sI787
I436470
sI788
I289020
sI789
I289021
sI790
I289022
sI791
I289023
sI792
I289024
sI793
I289025
sI794
I35080
sI795
I470060
sI796
I35083
sI797
I420110
sI798
I35089
sI799
I35090
sI800
I35091
sI801
I519214
sI802
I485660
sI803
I35101
sI804
I35102
sI805
I289840
sI806
I256290
sI807
I207140
sI808
I436520
sI809
I289070
sI810
I346420
sI811
I35130
sI812
I428350
sI813
I35135
sI814
I35136
sI815
I35137
sI816
I35138
sI817
I436550
sI818
I305480
sI819
I502090
sI820
I452940
sI821
I362830
sI822
I428370
sI823
I461140
sI824
I452950
sI825
I305500
sI826
I444770
sI827
I223594
sI828
I444790
sI829
I321920
sI830
I403850
sI831
I313740
sI832
I400450
sI833
I428430
sI834
I338320
sI835
I374510
sI836
I423440
sI837
I371100
sI838
I354730
sI839
I371120
sI840
I485810
sI841
I354740
sI842
I338360
sI843
I403900
sI844
I346560
sI845
I2500
sI846
I210944
sI847
I485860
sI848
I319910
sI849
I453100
sI850
I232530
sI851
I485870
sI852
I346610
sI853
I256500
sI854
I256501
sI855
I412150
sI856
I256503
sI857
I256504
sI858
I256505
sI859
I256506
sI860
I256507
sI861
I2540
sI862
I256510
sI863
I371200
sI864
I428550
sI865
I248330
sI866
I444940
sI867
I433240
sI868
I264730
sI869
I379420
sI870
I363610
sI871
I485920
sI872
I354850
sI873
I501510
sI874
I270770
sI875
I223790
sI876
I223792
sI877
I223793
sI878
I428600
sI879
I428601
sI880
I428602
sI881
I428603
sI882
I428604
sI883
I428605
sI884
I485950
sI885
I449360
sI886
I510530
sI887
I371270
sI888
I404040
sI889
I313930
sI890
I313931
sI891
I313932
sI892
I428630
sI893
I35417
sI894
I35419
sI895
I35425
sI896
I35429
sI897
I354920
sI898
I434620
sI899
I223850
sI900
I502380
sI901
I232050
sI902
I305780
sI903
I485140
sI904
I461930
sI905
I379520
sI906
I356800
sI907
I207490
sI908
I35460
sI909
I510600
sI910
I477840
sI911
I453270
sI912
I527000
sI913
I354970
sI914
I469660
sI915
I485146
sI916
I453280
sI917
I314020
sI918
I352710
sI919
I461480
sI920
I297650
sI921
I461940
sI922
I469690
sI923
I517560
sI924
I387780
sI925
I395980
sI926
I489250
sI927
I387790
sI928
I248530
sI929
I395990
sI930
I387800
sI931
I371420
sI932
I232570
sI933
I469730
sI934
I469740
sI935
I371350
sI936
I510710
sI937
I397780
sI938
I207610
sI939
I19200
sI940
I461570
sI941
I207620
sI942
I486150
sI943
I387850
sI944
I453390
sI945
I463320
sI946
I338710
sI947
I486170
sI948
I428830
sI949
I265000
sI950
I486190
sI951
I371510
sI952
I240440
sI953
I346940
sI954
I502590
sI955
I289600
sI956
I363330
sI957
I461640
sI958
I494410
sI959
I319970
sI960
I437070
sI961
I478031
sI962
I510800
sI963
I478033
sI964
I461650
sI965
I478035
sI966
I494420
sI967
I478037
sI968
I363350
sI969
I363351
sI970
I396120
sI971
I478041
sI972
I478042
sI973
I478043
sI974
I478044
sI975
I478045
sI976
I478046
sI977
I478047
sI978
I478048
sI979
I478049
sI980
I478050
sI981
I478051
sI982
I428900
sI983
I478053
sI984
I379750
sI985
I478055
sI986
I478056
sI987
I478057
sI988
I478058
sI989
I396140
sI990
I289650
sI991
I35700
sI992
I437110
sI993
I306040
sI994
I461690
sI995
I33650
sI996
I366400
sI997
I420740
sI998
I35720
sI999
I484860
sI1000
I387980
sI1001
I387981
sI1002
I387982
sI1003
I387983
sI1004
I387984
sI1005
I437140
sI1006
I428950
sI1007
I461720
sI1008
I289690
sI1009
I265120
sI1010
I420770
sI1011
I355240
sI1012
I314290
sI1013
I412600
sI1014
I410100
sI1015
I461760
sI1016
I330690
sI1017
I486340
sI1018
I463350
sI1019
I396230
sI1020
I388050
sI1021
I461780
sI1022
I371670
sI1023
I396250
sI1024
I363490
sI1025
I265191
sI1026
I265192
sI1027
I265193
sI1028
I494570
sI1029
I445420
sI1030
I306160
sI1031
I363510
sI1032
I38740
sI1033
I289800
sI1034
I396460
sI1035
I281610
sI1036
I333170
sI1037
I338960
sI1038
I355350
sI1039
I306200
sI1040
I420890
sI1041
I289820
sI1042
I338980
sI1043
I453670
sI1044
I281640
sI1045
I519210
sI1046
I519211
sI1047
I224300
sI1048
I519213
sI1049
I502830
sI1050
I519215
sI1051
I519216
sI1052
I519217
sI1053
I519218
sI1054
I519219
sI1055
I470070
sI1056
I461880
sI1057
I502841
sI1058
I340490
sI1059
I388160
sI1060
I11330
sI1061
I396360
sI1062
I11340
sI1063
I288610
sI1064
I330830
sI1065
I449720
sI1066
I314450
sI1067
I330840
sI1068
I444260
sI1069
I404570
sI1070
I478300
sI1071
I478301
sI1072
I11360
sI1073
I486880
sI1074
I232550
sI1075
I11370
sI1076
I461931
sI1077
I461932
sI1078
I461933
sI1079
I461934
sI1080
I461935
sI1081
I355440
sI1082
I388210
sI1083
I380020
sI1084
I230880
sI1085
I355450
sI1086
I470140
sI1087
I11390
sI1088
I399460
sI1089
I363650
sI1090
I273540
sI1091
I289930
sI1092
I449730
sI1093
I232590
sI1094
I519212
sI1095
I298140
sI1096
I459290
sI1097
I470180
sI1098
I369180
sI1099
I437420
sI1100
I380080
sI1101
I230882
sI1102
I453810
sI1103
I317300
sI1104
I11450
sI1105
I511170
sI1106
I370550
sI1107
I462030
sI1108
I403320
sI1109
I418340
sI1110
I249050
sI1111
I470240
sI1112
I3300
sI1113
I386940
sI1114
I470250
sI1115
I230884
sI1116
I3310
sI1117
I526206
sI1118
I339190
sI1119
I3320
sI1120
I27900
sI1121
I421120
sI1122
I3330
sI1123
I355590
sI1124
I511240
sI1125
I3340
sI1126
I403330
sI1127
I27920
sI1128
I3350
sI1129
I334270
sI1130
I374660
sI1131
I453850
sI1132
I3360
sI1133
I404770
sI1134
I27940
sI1135
I421160
sI1136
I421161
sI1137
I421162
sI1138
I421163
sI1139
I421164
sI1140
I421165
sI1141
I421166
sI1142
I384221
sI1143
I3380
sI1144
I384222
sI1145
I44350
sI1146
I449760
sI1147
I396610
sI1148
I511300
sI1149
I511301
sI1150
I11590
sI1151
I384225
sI1152
I3400
sI1153
I445770
sI1154
I314700
sI1155
I388430
sI1156
I320360
sI1157
I3410
sI1158
I281940
sI1159
I333710
sI1160
I232790
sI1161
I388440
sI1162
I412900
sI1163
I462170
sI1164
I216411
sI1165
I216412
sI1166
I216413
sI1167
I216414
sI1168
I216415
sI1169
I216416
sI1170
I216417
sI1171
I216418
sI1172
I216419
sI1173
I216420
sI1174
I216421
sI1175
I3430
sI1176
I28010
sI1177
I28011
sI1178
I28012
sI1179
I3440
sI1180
I363890
sI1181
I19830
sI1182
I63380
sI1183
I3450
sI1184
I273240
sI1185
I3460
sI1186
I339340
sI1187
I320362
sI1188
I249230
sI1189
I396690
sI1190
I339350
sI1191
I3480
sI1192
I520772
sI1193
I486810
sI1194
I429470
sI1195
I230890
sI1196
I249250
sI1197
I257350
sI1198
I511400
sI1199
I454060
sI1200
I331181
sI1201
I355760
sI1202
I511410
sI1203
I3390
sI1204
I350110
sI1205
I249270
sI1206
I363960
sI1207
I488010
sI1208
I282050
sI1209
I351461
sI1210
I437701
sI1211
I437702
sI1212
I339400
sI1213
I249290
sI1214
I307010
sI1215
I363980
sI1216
I351480
sI1217
I454100
sI1218
I527830
sI1219
I527831
sI1220
I527832
sI1221
I527833
sI1222
I347610
sI1223
I527835
sI1224
I527836
sI1225
I527837
sI1226
I527838
sI1227
I527839
sI1228
I527840
sI1229
I527841
sI1230
I527842
sI1231
I42918
sI1232
I3560
sI1233
I282090
sI1234
I282091
sI1235
I282092
sI1236
I455250
sI1237
I306670
sI1238
I249330
sI1239
I306680
sI1240
I200185
sI1241
I3580
sI1242
I200189
sI1243
I429570
sI1244
I3590
sI1245
I396810
sI1246
I269570
sI1247
I503310
sI1248
I249360
sI1249
I355860
sI1250
I291190
sI1251
I298520
sI1252
I462370
sI1253
I331300
sI1254
I107100
sI1255
I486960
sI1256
I306440
sI1257
I396850
sI1258
I224820
sI1259
I339510
sI1260
I454200
sI1261
I405050
sI1262
I359440
sI1263
I462400
sI1264
I8800
sI1265
I208140
sI1266
I410210
sI1267
I355920
sI1268
I233470
sI1269
I454230
sI1270
I501690
sI1271
I487010
sI1272
I208500
sI1273
I320370
sI1274
I3710
sI1275
I437890
sI1276
I429700
sI1277
I44310
sI1278
I298630
sI1279
I237990
sI1280
I3720
sI1281
I620
sI1282
I429710
sI1283
I429711
sI1284
I384280
sI1285
I3730
sI1286
I224920
sI1287
I320371
sI1288
I374880
sI1289
I356000
sI1290
I339620
sI1291
I233130
sI1292
I224940
sI1293
I339630
sI1294
I478040
sI1295
I388790
sI1296
I298680
sI1297
I422120
sI1298
I224960
sI1299
I364230
sI1300
I306890
sI1301
I224980
sI1302
I364250
sI1303
I331490
sI1304
I331491
sI1305
I331492
sI1306
I225000
sI1307
I370020
sI1308
I413420
sI1309
I364270
sI1310
I11560
sI1311
I3830
sI1312
I415700
sI1313
I438010
sI1314
I225020
sI1315
I3838
sI1316
I3839
sI1317
I495360
sI1318
I495361
sI1319
I388870
sI1320
I495370
sI1321
I495371
sI1322
I438030
sI1323
I241430
sI1324
I440130
sI1325
I413470
sI1326
I372511
sI1327
I372512
sI1328
I257830
sI1329
I487220
sI1330
I217810
sI1331
I44340
sI1332
I3900
sI1333
I438080
sI1334
I266050
sI1335
I421700
sI1336
I3910
sI1337
I487240
sI1338
I274250
sI1339
I429900
sI1340
I429901
sI1341
I429902
sI1342
I429903
sI1343
I429904
sI1344
I429905
sI1345
I429906
sI1346
I429907
sI1347
I429908
sI1348
I470870
sI1349
I331610
sI1350
I233310
sI1351
I444390
sI1352
I487270
sI1353
I208750
sI1354
I487280
sI1355
I520050
sI1356
I520051
sI1357
I520052
sI1358
I520053
sI1359
I520054
sI1360
I520055
sI1361
I520056
sI1362
I520057
sI1363
I520058
sI1364
I520059
sI1365
I520060
sI1366
I520061
sI1367
I397190
sI1368
I462730
sI1369
I499010
sI1370
I208790
sI1371
I208791
sI1372
I208792
sI1373
I208793
sI1374
I208795
sI1375
I208796
sI1376
I208797
sI1377
I208798
sI1378
I208799
sI1379
I208800
sI1380
I487330
sI1381
I438180
sI1382
I520101
sI1383
I520102
sI1384
I208807
sI1385
I208808
sI1386
I208809
sI1387
I208810
sI1388
I208811
sI1389
I208812
sI1390
I208813
sI1391
I520110
sI1392
I520111
sI1393
I520112
sI1394
I208817
sI1395
I208818
sI1396
I315320
sI1397
I511930
sI1398
I331710
sI1399
I210933
sI1400
I430020
sI1401
I257990
sI1402
I331720
sI1403
I396620
sI1404
I210936
sI1405
I528340
sI1406
I265550
sI1407
I528342
sI1408
I528343
sI1409
I528344
sI1410
I528345
sI1411
I528346
sI1412
I528347
sI1413
I528348
sI1414
I528349
sI1415
I528350
sI1416
I528351
sI1417
I528352
sI1418
I266210
sI1419
I528360
sI1420
I528361
sI1421
I528362
sI1422
I528363
sI1423
I528364
sI1424
I528365
sI1425
I528366
sI1426
I528367
sI1427
I528368
sI1428
I528369
sI1429
I528370
sI1430
I528371
sI1431
I528372
sI1432
I225270
sI1433
I528380
sI1434
I528381
sI1435
I528382
sI1436
I528383
sI1437
I528384
sI1438
I528385
sI1439
I528386
sI1440
I528387
sI1441
I528388
sI1442
I528389
sI1443
I528390
sI1444
I528391
sI1445
I528392
sI1446
I332460
sI1447
I307210
sI1448
I299020
sI1449
I331790
sI1450
I405520
sI1451
I225300
sI1452
I262830
sI1453
I307230
sI1454
I340000
sI1455
I454690
sI1456
I397350
sI1457
I225320
sI1458
I3420
sI1459
I258090
sI1460
I453880
sI1461
I405550
sI1462
I73054
sI1463
I397370
sI1464
I61500
sI1465
I28000
sI1466
I438340
sI1467
I266310
sI1468
I73057
sI1469
I464960
sI1470
I388450
sI1471
I348240
sI1472
I430170
sI1473
I230887
sI1474
I389220
sI1475
I340070
sI1476
I471740
sI1477
I528490
sI1478
I462960
sI1479
I282470
sI1480
I446590
sI1481
I274560
sI1482
I471170
sI1483
I258180
sI1484
I473110
sI1485
I249990
sI1486
I427001
sI1487
I413840
sI1488
I397460
sI1489
I389270
sI1490
I258200
sI1491
I372890
sI1492
I315550
sI1493
I495780
sI1494
I305180
sI1495
I495790
sI1496
I78000
sI1497
I348340
sI1498
I305182
sI1499
I463030
sI1500
I209080
sI1501
I487610
sI1502
I397500
sI1503
I455370
sI1504
I389310
sI1505
I463040
sI1506
I291010
sI1507
I487620
sI1508
I348360
sI1509
I463050
sI1510
I372940
sI1511
I305186
sI1512
I438480
sI1513
I430290
sI1514
I450780
sI1515
I357070
sI1516
I291030
sI1517
I405720
sI1518
I356570
sI1519
I430300
sI1520
I299230
sI1521
I488970
sI1522
I233700
sI1523
I430310
sI1524
I430311
sI1525
I430312
sI1526
I430313
sI1527
I430314
sI1528
I430315
sI1529
I430316
sI1530
I430317
sI1531
I430318
sI1532
I430319
sI1533
I430320
sI1534
I430321
sI1535
I430322
sI1536
I463100
sI1537
I12540
sI1538
I200960
sI1539
I225540
sI1540
I463110
sI1541
I400770
sI1542
I12560
sI1543
I454930
sI1544
I282900
sI1545
I471320
sI1546
I730
sI1547
I200990
sI1548
I73093
sI1549
I438560
sI1550
I305200
sI1551
I430370
sI1552
I94500
sI1553
I387770
sI1554
I201000
sI1555
I73095
sI1556
I307500
sI1557
I94510
sI1558
I454960
sI1559
I73096
sI1560
I201010
sI1561
I397620
sI1562
I94520
sI1563
I94530
sI1564
I250180
sI1565
I340300
sI1566
I413070
sI1567
I340310
sI1568
I495960
sI1569
I284730
sI1570
I425360
sI1571
I291170
sI1572
I235580
sI1573
I463210
sI1574
I495980
sI1575
I233840
sI1576
I471410
sI1577
I463220
sI1578
I432190
sI1579
I373110
sI1580
I283000
sI1581
I348540
sI1582
I319850
sI1583
I12670
sI1584
I414080
sI1585
I235584
sI1586
I242050
sI1587
I254700
sI1588
I283020
sI1589
I94610
sI1590
I250260
sI1591
I94620
sI1592
I496030
sI1593
I219740
sI1594
I20900
sI1595
I12710
sI1596
I446900
sI1597
I20920
sI1598
I233920
sI1599
I512450
sI1600
I397770
sI1601
I12750
sI1602
I250320
sI1603
I405970
sI1604
I233940
sI1605
I258520
sI1606
I363940
sI1607
I340730
sI1608
I12770
sI1609
I496100
sI1610
I496101
sI1611
I233960
sI1612
I223314
sI1613
I347560
sI1614
I31250
sI1615
I266740
sI1616
I508670
sI1617
I12790
sI1618
I520700
sI1619
I316160
sI1620
I12810
sI1621
I394870
sI1622
I406030
sI1623
I387160
sI1624
I299540
sI1625
I406040
sI1626
I12830
sI1627
I406050
sI1628
I406060
sI1629
I307760
sI1630
I520760
sI1631
I520761
sI1632
I520762
sI1633
I520763
sI1634
I520764
sI1635
I520765
sI1636
I520766
sI1637
I520767
sI1638
I520768
sI1639
I520769
sI1640
I520770
sI1641
I520771
sI1642
I389700
sI1643
I201290
sI1644
I504400
sI1645
I414290
sI1646
I471640
sI1647
I317540
sI1648
I250460
sI1649
I294330
sI1650
I432230
sI1651
I368060
sI1652
I512620
sI1653
I512621
sI1654
I512622
sI1655
I373360
sI1656
I488050
sI1657
I22634
sI1658
I275080
sI1659
I200130
sI1660
I365210
sI1661
I234140
sI1662
I463520
sI1663
I391280
sI1664
I347590
sI1665
I262940
sI1666
I340650
sI1667
I45740
sI1668
I485490
sI1669
I422580
sI1670
I348860
sI1671
I471741
sI1672
I258750
sI1673
I258751
sI1674
I258752
sI1675
I520900
sI1676
I45770
sI1677
I201420
sI1678
I45773
sI1679
I45774
sI1680
I45775
sI1681
I45776
sI1682
I381650
sI1683
I217811
sI1684
I455460
sI1685
I234210
sI1686
I488170
sI1687
I316140
sI1688
I302950
sI1689
I234230
sI1690
I3540
sI1691
I463610
sI1692
I258813
sI1693
I258814
sI1694
I258815
sI1695
I275200
sI1696
I496390
sI1697
I488200
sI1698
I234250
sI1699
I389900
sI1700
I381710
sI1701
I381711
sI1702
I381712
sI1703
I381713
sI1704
I311680
sI1705
I398100
sI1706
I527834
sI1707
I373540
sI1708
I260230
sI1709
I275240
sI1710
I389930
sI1711
I521010
sI1712
I454110
sI1713
I373560
sI1714
I425440
sI1715
I442890
sI1716
I447300
sI1717
I308040
sI1718
I283470
sI1719
I314410
sI1720
I463710
sI1721
I284950
sI1722
I471910
sI1723
I463720
sI1724
I455530
sI1725
I471920
sI1726
I258930
sI1727
I496500
sI1728
I242550
sI1729
I200170
sI1730
I463750
sI1731
I455560
sI1732
I455561
sI1733
I455562
sI1734
I414610
sI1735
I488340
sI1736
I439190
sI1737
I222021
sI1738
I218020
sI1739
I496550
sI1740
I406440
sI1741
I357290
sI1742
I512940
sI1743
I454130
sI1744
I381870
sI1745
I410440
sI1746
I488370
sI1747
I466420
sI1748
I414651
sI1749
I488380
sI1750
I414660
sI1751
I335350
sI1752
I488390
sI1753
I70600
sI1754
I512970
sI1755
I496590
sI1756
I406480
sI1757
I450040
sI1758
I439250
sI1759
I70616
sI1760
I383140
sI1761
I406490
sI1762
I70620
sI1763
I512990
sI1764
I44360
sI1765
I373730
sI1766
I201700
sI1767
I357350
sI1768
I200188
sI1769
I324590
sI1770
I357360
sI1771
I507390
sI1772
I455670
sI1773
I398330
sI1774
I357380
sI1775
I373770
sI1776
I234510
sI1777
I250900
sI1778
I383150
sI1779
I3990
sI1780
I283680
sI1781
I349220
sI1782
I495110
sI1783
I496680
sI1784
I284850
sI1785
I504880
sI1786
I320351
sI1787
I320352
sI1788
I95300
sI1789
I450060
sI1790
I521290
sI1791
I31270
sI1792
I357460
sI1793
I339470
sI1794
I431190
sI1795
I431191
sI1796
I204303
sI1797
I365660
sI1798
I208400
sI1799
I504930
sI1800
I328550
sI1801
I201830
sI1802
I275560
sI1803
I366780
sI1804
I492392
sI1805
I267774
sI1806
I406650
sI1807
I516970
sI1808
I349310
sI1809
I204309
sI1810
I341120
sI1811
I320363
sI1812
I204310
sI1813
I21640
sI1814
I504970
sI1815
I390290
sI1816
I324760
sI1817
I234650
sI1818
I341150
sI1819
I451440
sI1820
I308420
sI1821
I284870
sI1822
I431270
sI1823
I242860
sI1824
I402290
sI1825
I451443
sI1826
I488630
sI1827
I316600
sI1828
I320372
sI1829
I21690
sI1830
I292030
sI1831
I324800
sI1832
I390340
sI1833
I61520
sI1834
I251080
sI1835
I251081
sI1836
I365770
sI1837
I464080
sI1838
I488660
sI1839
I234710
sI1840
I3620
sI1841
I373980
sI1842
I415080
sI1843
I13540
sI1844
I496870
sI1845
I338130
sI1846
I320381
sI1847
I319017
sI1848
I382200
sI1849
I431370
sI1850
I423180
sI1851
I242960
sI1852
I65920
sI1853
I320387
sI1854
I226580
sI1855
I415000
sI1856
I365850
sI1857
I431390
sI1858
I406830
sI1859
I406840
sI1860
I286260
sI1861
I513340
sI1862
I423230
sI1863
I376373
sI1864
I46400
sI1865
I421630
sI1866
I406850
sI1867
I480580
sI1868
I390470
sI1869
I423240
sI1870
I254860
sI1871
I46410
sI1872
I447820
sI1873
I480590
sI1874
I480593
sI1875
I480594
sI1876
I406870
sI1877
I398680
sI1878
I450670
sI1879
I496990
sI1880
I464230
sI1881
I456040
sI1882
I373650
sI1883
I497010
sI1884
I398710
sI1885
I292220
sI1886
I447870
sI1887
I521600
sI1888
I298560
sI1889
I447880
sI1890
I439690
sI1891
I497040
sI1892
I423320
sI1893
I425540
sI1894
I497050
sI1895
I406940
sI1896
I439710
sI1897
I226720
sI1898
I406950
sI1899
I390570
sI1900
I456110
sI1901
I406960
sI1902
I382390
sI1903
I46520
sI1904
I423361
sI1905
I423362
sI1906
I423363
sI1907
I423364
sI1908
I334070
sI1909
I439750
sI1910
I423367
sI1911
I423368
sI1912
I46540
sI1913
I410530
sI1914
I439770
sI1915
I259550
sI1916
I447970
sI1917
I112100
sI1918
I390630
sI1919
I370940
sI1920
I46570
sI1921
I407020
sI1922
I431600
sI1923
I447990
sI1924
I267770
sI1925
I267771
sI1926
I341500
sI1927
I267773
sI1928
I292350
sI1929
I325120
sI1930
I267778
sI1931
I259590
sI1932
I259591
sI1933
I259592
sI1934
I426924
sI1935
I267786
sI1936
I357900
sI1937
I218640
sI1938
I261720
sI1939
I426926
sI1940
I431640
sI1941
I464410
sI1942
I407070
sI1943
I488991
sI1944
I513570
sI1945
I464420
sI1946
I251430
sI1947
I426929
sI1948
I226860
sI1949
I464430
sI1950
I292400
sI1951
I485640
sI1952
I489010
sI1953
I456250
sI1954
I325180
sI1955
I321800
sI1956
I390720
sI1957
I451510
sI1958
I448070
sI1959
I390730
sI1960
I333390
sI1961
I390740
sI1962
I415320
sI1963
I439900
sI1964
I431710
sI1965
I257970
sI1966
I505440
sI1967
I439910
sI1968
I439920
sI1969
I218740
sI1970
I409193
sI1971
I398970
sI1972
I464510
sI1973
I464511
sI1974
I464512
sI1975
I464513
sI1976
I407830
sI1977
I464520
sI1978
I464521
sI1979
I464522
sI1980
I464523
sI1981
I448140
sI1982
I443330
sI1983
I292500
sI1984
I366230
sI1985
I259740
sI1986
I522844
sI1987
I382630
sI1988
I362780
sI1989
I366250
sI1990
I366260
sI1991
I313630
sI1992
I3700
sI1993
I407230
sI1994
I399040
sI1995
I513730
sI1996
I415431
sI1997
I366280
sI1998
I235210
sI1999
I431820
sI2000
I382670
sI2001
I333520
sI2002
I291790
sI2003
I390870
sI2004
I235230
sI2005
I431840
sI2006
I488400
sI2007
I374500
sI2008
I284390
sI2009
I358120
sI2010
I513770
sI2011
I456430
sI2012
I489200
sI2013
I448260
sI2014
I104200
sI2015
I292620
sI2016
I423700
sI2017
I70617
sI2018
I227100
sI2019
I365530
sI2020
I423710
sI2021
I333600
sI2022
I407330
sI2023
I399140
sI2024
I472870
sI2025
I341800
sI2026
I282800
sI2027
I38700
sI2028
I268080
sI2029
I492510
sI2030
I489780
sI2031
I390970
sI2032
I259900
sI2033
I279800
sI2034
I38720
sI2035
I317250
sI2036
I290060
sI2037
I423760
sI2038
I415570
sI2039
I366420
sI2040
I470670
sI2041
I365540
sI2042
I464730
sI2043
I485690
sI2044
I235360
sI2045
I55140
sI2046
I366440
sI2047
I317290
sI2048
I235380
sI2049
I464760
sI2050
I407420
sI2051
I391040
sI2052
I305472
sI2053
I423810
sI2054
I497540
sI2055
I312300
sI2056
I456590
sI2057
I448400
sI2058
I368730
sI2059
I426990
sI2060
I489300
sI2061
I481180
sI2062
I463440
sI2063
I391070
sI2064
I423840
sI2065
I70640
sI2066
I63398
sI2067
I63399
sI2068
I391080
sI2069
I333740
sI2070
I426994
sI2071
I456630
sI2072
I513980
sI2073
I426997
sI2074
I489410
sI2075
I317380
sI2076
I332790
sI2077
I497620
sI2078
I448470
sI2079
I498520
sI2080
I276440
sI2081
I464860
sI2082
I70650
sI2083
I415710
sI2084
I211280
sI2085
I409254
sI2086
I489450
sI2087
I346450
sI2088
I456690
sI2089
I210931
sI2090
I210932
sI2091
I443390
sI2092
I210934
sI2093
I350200
sI2094
I210937
sI2095
I210938
sI2096
I210943
sI2097
I317440
sI2098
I210945
sI2099
I514050
sI2100
I432470
sI2101
I333830
sI2102
I473100
sI2103
I376372
sI2104
I489490
sI2105
I235540
sI2106
I432150
sI2107
I70660
sI2108
I497690
sI2109
I473120
sI2110
I284710
sI2111
I317480
sI2112
I448560
sI2113
I317490
sI2114
I391220
sI2115
I383030
sI2116
I374840
sI2117
I489530
sI2118
I358460
sI2119
I350270
sI2120
I350271
sI2121
I424000
sI2122
I235585
sI2123
I399430
sI2124
I22600
sI2125
I497740
sI2126
I485730
sI2127
I284750
sI2128
I497750
sI2129
I391260
sI2130
I522333
sI2131
I522334
sI2132
I522335
sI2133
I497760
sI2134
I284770
sI2135
I235620
sI2136
I22630
sI2137
I22631
sI2138
I22632
sI2139
I22633
sI2140
I456810
sI2141
I489580
sI2142
I317550
sI2143
I514160
sI2144
I284790
sI2145
I514170
sI2146
I383100
sI2147
I289130
sI2148
I211070
sI2149
I448640
sI2150
I514180
sI2151
I301190
sI2152
I284810
sI2153
I235660
sI2154
I391310
sI2155
I465060
sI2156
I465070
sI2157
I407730
sI2158
I440500
sI2159
I497850
sI2160
I407740
sI2161
I265930
sI2162
I391360
sI2163
I386080
sI2164
I362870
sI2165
I407750
sI2166
I391370
sI2167
I383180
sI2168
I448720
sI2169
I481490
sI2170
I211720
sI2171
I415960
sI2172
I284890
sI2173
I476490
sI2174
I375010
sI2175
I440550
sI2176
I497910
sI2177
I297000
sI2178
I448760
sI2179
I391420
sI2180
I334080
sI2181
I407810
sI2182
I335190
sI2183
I482220
sI2184
I448780
sI2185
I514320
sI2186
I448790
sI2187
I407940
sI2188
I350490
sI2189
I342300
sI2190
I276770
sI2191
I383270
sI2192
I47400
sI2193
I366890
sI2194
I394290
sI2195
I497970
sI2196
I448820
sI2197
I399670
sI2198
I465210
sI2199
I293180
sI2200
I497990
sI2201
I413410
sI2202
I416080
sI2203
I285010
sI2204
I344740
sI2205
I473430
sI2206
I375130
sI2207
I358750
sI2208
I383330
sI2209
I473450
sI2210
I342380
sI2211
I375160
sI2212
I235900
sI2213
I473470
sI2214
I203140
sI2215
I372020
sI2216
I473480
sI2217
I347470
sI2218
I252310
sI2219
I203160
sI2220
I440730
sI2221
I258816
sI2222
I375200
sI2223
I465320
sI2224
I407980
sI2225
I245490
sI2226
I358830
sI2227
I468040
sI2228
I489910
sI2229
I465340
sI2230
I498110
sI2231
I367040
sI2232
I457120
sI2233
I31170
sI2234
I433910
sI2235
I334280
sI2236
I31180
sI2237
I465360
sI2238
I31190
sI2239
I399831
sI2240
I473560
sI2241
I399833
sI2242
I399834
sI2243
I399836
sI2244
I489950
sI2245
I31200
sI2246
I326120
sI2247
I31210
sI2248
I473580
sI2249
I457201
sI2250
I489970
sI2251
I489971
sI2252
I489972
sI2253
I489973
sI2254
I489974
sI2255
I489975
sI2256
I489976
sI2257
I489977
sI2258
I489978
sI2259
I40703
sI2260
I395690
sI2261
I31230
sI2262
I489990
sI2263
I31240
sI2264
I448940
sI2265
I278460
sI2266
I416270
sI2267
I522770
sI2268
I522771
sI2269
I522772
sI2270
I522773
sI2271
I522774
sI2272
I522775
sI2273
I522776
sI2274
I522777
sI2275
I522778
sI2276
I522779
sI2277
I522780
sI2278
I522781
sI2279
I473630
sI2280
I383520
sI2281
I498210
sI2282
I408100
sI2283
I408101
sI2284
I408102
sI2285
I522791
sI2286
I522792
sI2287
I522793
sI2288
I522794
sI2289
I522795
sI2290
I522796
sI2291
I522797
sI2292
I522798
sI2293
I522799
sI2294
I522800
sI2295
I522801
sI2296
I473650
sI2297
I416310
sI2298
I522810
sI2299
I522811
sI2300
I522812
sI2301
I522813
sI2302
I522814
sI2303
I522815
sI2304
I522816
sI2305
I522817
sI2306
I522818
sI2307
I522819
sI2308
I522820
sI2309
I465480
sI2310
I498250
sI2311
I341090
sI2312
I522830
sI2313
I47700
sI2314
I274190
sI2315
I522840
sI2316
I522841
sI2317
I522842
sI2318
I522843
sI2319
I342620
sI2320
I522845
sI2321
I522846
sI2322
I522847
sI2323
I522848
sI2324
I522849
sI2325
I522850
sI2326
I522851
sI2327
I490090
sI2328
I522860
sI2329
I522861
sI2330
I522862
sI2331
I522863
sI2332
I522864
sI2333
I522865
sI2334
I522866
sI2335
I522867
sI2336
I522868
sI2337
I522869
sI2338
I522870
sI2339
I522871
sI2340
I342650
sI2341
I244160
sI2342
I473730
sI2343
I514700
sI2344
I301710
sI2345
I211600
sI2346
I318100
sI2347
I15000
sI2348
I6810
sI2349
I375460
sI2350
I252590
sI2351
I449200
sI2352
I309940
sI2353
I372510
sI2354
I6840
sI2355
I6850
sI2356
I6860
sI2357
I408270
sI2358
I473810
sI2359
I6870
sI2360
I324730
sI2361
I6880
sI2362
I449250
sI2363
I309990
sI2364
I309991
sI2365
I285420
sI2366
I383730
sI2367
I6900
sI2368
I6910
sI2369
I383750
sI2370
I47880
sI2371
I499500
sI2372
I318220
sI2373
I15120
sI2374
I432600
sI2375
I47890
sI2376
I47898
sI2377
I238370
sI2378
I211740
sI2379
I326430
sI2380
I326431
sI2381
I418950
sI2382
I408360
sI2383
I393010
sI2384
I47920
sI2385
I359220
sI2386
I47930
sI2387
I285500
sI2388
I310080
sI2389
I358880
sI2390
I15170
sI2391
I6980
sI2392
I490310
sI2393
I285520
sI2394
I359250
sI2395
I7000
sI2396
I403940
sI2397
I359260
sI2398
I506720
sI2399
I416610
sI2400
I318310
sI2401
I433000
sI2402
I301930
sI2403
I7020
sI2404
I392050
sI2405
I465780
sI2406
I334710
sI2407
I408440
sI2408
I318330
sI2409
I424830
sI2410
I498560
sI2411
I499520
sI2412
I391660
sI2413
I429890
sI2414
I359310
sI2415
I526830
sI2416
I269210
sI2417
I203680
sI2418
I261030
sI2419
I490410
sI2420
I490411
sI2421
I490412
sI2422
I482221
sI2423
I351150
sI2424
I482223
sI2425
I482224
sI2426
I334770
sI2427
I334771
sI2428
I334772
sI2429
I402590
sI2430
I359350
sI2431
I228280
sI2432
I31220
sI2433
I383930
sI2434
I334780
sI2435
I334781
sI2436
I334782
sI2437
I394400
sI2438
I256502
sI2439
I7110
sI2440
I334791
sI2441
I334792
sI2442
I327500
sI2443
I277450
sI2444
I457680
sI2445
I277460
sI2446
I277470
sI2447
I434780
sI2448
I465890
sI2449
I498660
sI2450
I349350
sI2451
I400360
sI2452
I457710
sI2453
I277490
sI2454
I424950
sI2455
I291050
sI2456
I277500
sI2457
I384000
sI2458
I449540
sI2459
I277510
sI2460
I351240
sI2461
I304300
sI2462
I15370
sI2463
I304301
sI2464
I277520
sI2465
I269330
sI2466
I15380
sI2467
I416790
sI2468
I236570
sI2469
I293920
sI2470
I277540
sI2471
I274270
sI2472
I203830
sI2473
I277560
sI2474
I412170
sI2475
I359490
sI2476
I359491
sI2477
I427190
sI2478
I359495
sI2479
I359496
sI2480
I359497
sI2481
I398520
sI2482
I457810
sI2483
I310360
sI2484
I433241
sI2485
I433242
sI2486
I457820
sI2487
I449630
sI2488
I446310
sI2489
I482410
sI2490
I399890
sI2491
I457840
sI2492
I457841
sI2493
I457842
sI2494
I482420
sI2495
I312510
sI2496
I474230
sI2497
I473620
sI2498
I327530
sI2499
I359550
sI2500
I509120
sI2501
I294020
sI2502
I449680
sI2503
I72850
sI2504
I457880
sI2505
I42180
sI2506
I408730
sI2507
I507040
sI2508
I466800
sI2509
I515240
sI2510
I31260
sI2511
I326840
sI2512
I348020
sI2513
I12520
sI2514
I322080
sI2515
I408770
sI2516
I400580
sI2517
I457930
sI2518
I477730
sI2519
I457940
sI2520
I384220
sI2521
I446330
sI2522
I498910
sI2523
I384223
sI2524
I384224
sI2525
I423120
sI2526
I384226
sI2527
I384227
sI2528
I351460
sI2529
I522790
sI2530
I335080
sI2531
I315260
sI2532
I305490
sI2533
I302320
sI2534
I473640
sI2535
I228600
sI2536
I228601
sI2537
I425210
sI2538
I301610
sI2539
I351490
sI2540
I498950
sI2541
I441610
sI2542
I498960
sI2543
I247000
sI2544
I220440
sI2545
I310560
sI2546
I31280
sI2547
I326950
sI2548
I427006
sI2549
I425270
sI2550
I343360
sI2551
I335170
sI2552
I490820
sI2553
I498230
sI2554
I73030
sI2555
I73031
sI2556
I73033
sI2557
I343370
sI2558
I73035
sI2559
I73036
sI2560
I73037
sI2561
I73039
sI2562
I294230
sI2563
I236890
sI2564
I433500
sI2565
I31290
sI2566
I343390
sI2567
I335200
sI2568
I458640
sI2569
I73058
sI2570
I400740
sI2571
I388420
sI2572
I391740
sI2573
I40300
sI2574
I1256
sI2575
I335220
sI2576
I416320
sI2577
I359810
sI2578
I73091
sI2579
I73092
sI2580
I331670
sI2581
I105000
sI2582
I376200
sI2583
I73097
sI2584
I73098
sI2585
I343440
sI2586
I204180
sI2587
I318870
sI2588
I318871
sI2589
I318872
sI2590
I302490
sI2591
I73115
sI2592
I499100
sI2593
I73119
sI2594
I73120
sI2595
I499110
sI2596
I458800
sI2597
I287220
sI2598
I466350
sI2599
I499120
sI2600
I301640
sI2601
I503710
sI2602
I466360
sI2603
I499130
sI2604
I490940
sI2605
I368061
sI2606
I425410
sI2607
I294340
sI2608
I40390
sI2609
I40391
sI2610
I40392
sI2611
I40393
sI2612
I417230
sI2613
I450000
sI2614
I450001
sI2615
I481870
sI2616
I499160
sI2617
I520100
sI2618
I269790
sI2619
I454550
sI2620
I490980
sI2621
I208806
sI2622
I441830
sI2623
I351720
sI2624
I520103
sI2625
I520104
sI2626
I515570
sI2627
I507380
sI2628
I7670
sI2629
I520105
sI2630
I491000
sI2631
I498260
sI2632
I520106
sI2633
I466430
sI2634
I499200
sI2635
I450050
sI2636
I520107
sI2637
I261640
sI2638
I520108
sI2639
I204300
sI2640
I520109
sI2641
I228880
sI2642
I204305
sI2643
I204306
sI2644
I204307
sI2645
I204308
sI2646
I208814
sI2647
I450070
sI2648
I204311
sI2649
I204312
sI2650
I204314
sI2651
I204315
sI2652
I220700
sI2653
I204317
sI2654
I204318
sI2655
I204319
sI2656
I450080
sI2657
I478990
sI2658
I319011
sI2659
I319014
sI2660
I319015
sI2661
I319016
sI2662
I383580
sI2663
I319018
sI2664
I523820
sI2665
I523821
sI2666
I433710
sI2667
I376370
sI2668
I376371
sI2669
I327220
sI2670
I498270
sI2671
I65080
sI2672
I368190
sI2673
I523840
sI2674
I310850
sI2675
I220740
sI2676
I425542
sI2677
I425544
sI2678
I220760
sI2679
I222480
sI2680
I409190
sI2681
I409191
sI2682
I409192
sI2683
I360380
sI2684
I409194
sI2685
I220780
sI2686
I409200
sI2687
I409201
sI2688
I409202
sI2689
I409203
sI2690
I409204
sI2691
I451442
sI2692
I474750
sI2693
I220801
sI2694
I220802
sI2695
I220803
sI2696
I220804
sI2697
I220805
sI2698
I220806
sI2699
I220807
sI2700
I220809
sI2701
I384650
sI2702
I220811
sI2703
I220812
sI2704
I220813
sI2705
I409240
sI2706
I409241
sI2707
I360090
sI2708
I499360
sI2709
I409250
sI2710
I409251
sI2711
I409252
sI2712
I409253
sI2713
I392870
sI2714
I409255
sI2715
I409256
sI2716
I409257
sI2717
I327340
sI2718
I482990
sI2719
I433840
sI2720
I360114
sI2721
I360115
sI2722
I410910
sI2723
I403980
sI2724
I253650
sI2725
I488930
sI2726
I286670
sI2727
I204304
sI2728
I515800
sI2729
I397980
sI2730
I458470
sI2731
I458480
sI2732
I329000
sI2733
I491250
sI2734
I524020
sI2735
I270070
sI2736
I487380
sI2737
I40700
sI2738
I528341
sI2739
I352000
sI2740
I461440
sI2741
I365520
sI2742
I520150
sI2743
I230700
sI2744
I352010
sI2745
I261900
sI2746
I371330
sI2747
I40720
sI2748
I466710
sI2749
I501040
sI2750
I491300
sI2751
I401190
sI2752
I417580
sI2753
I491310
sI2754
I474930
sI2755
I8000
sI2756
I417610
sI2757
I491340
sI2758
I430050
sI2759
I417620
sI2760
I327510
sI2761
I466780
sI2762
I417630
sI2763
I327520
sI2764
I6800
sI2765
I466790
sI2766
I417640
sI2767
I349500
sI2768
I286570
sI2769
I221040
sI2770
I323560
sI2771
I368500
sI2772
I443710
sI2773
I343930
sI2774
I376700
sI2775
I221162
sI2776
I466820
sI2777
I248470
sI2778
I327560
sI2779
I225260
sI2780
I8080
sI2781
I35480
sI2782
I380910
sI2783
I466840
sI2784
I232090
sI2785
I450470
sI2786
I466870
sI2787
I409530
sI2788
I204731
sI2789
I204732
sI2790
I435530
sI2791
I204734
sI2792
I450500
sI2793
I307190
sI2794
I262142
sI2795
I466890
sI2796
I8140
sI2797
I368590
sI2798
I286671
sI2799
I311250
sI2800
I316750
sI2801
I409560
sI2802
I352220
sI2803
I450530
sI2804
I483300
sI2805
I221160
sI2806
I221161
sI2807
I8170
sI2808
I221164
sI2809
I221165
sI2810
I221166
sI2811
I221167
sI2812
I221168
sI2813
I458740
sI2814
I458750
sI2815
I491510
sI2816
I516090
sI2817
I262141
sI2818
I8190
s.