(dp0
I0
I22
sI1
I192
sI2
I14
sI3
I132
sI4
I203
sI5
I47
sI6
I130
sI7
I222
sI8
I182
sI9
I129
sI10
I173
sI11
I20
sI12
I128
sI13
I196
sI14
I27
sI15
I127
sI16
I215
sI17
I23
sI18
I16
sI19
I34
sI20
I17
sI21
I126
sI22
I203
sI23
I119
sI24
I227
sI25
I14
sI26
cnumpy.core.multiarray
scalar
p1
(cnumpy
dtype
p2
(S'f8'
p3
I0
I1
tp4
Rp5
(I3
S'<'
p6
NNNI-1
I-1
I0
tp7
bS'\x9e\x863\x0b\xe1\x97J@'
p8
tp9
Rp10
sI27
I64
sI28
g10
sI29
I16
sI30
I16
sI31
I16
sI32
I16
sI33
I16
sI34
I130
sI35
I16
sI36
I16
sI37
I16
sI38
I16
sI39
I16
sI40
I16
sI41
I16
sI42
I16
sI43
I15
sI44
I15
sI45
I15
sI46
I15
sI47
I15
sI48
I15
sI49
I15
sI50
I15
sI51
I15
sI52
I114
sI53
I125
sI54
I34
sI55
I44
sI56
I31
sI57
g10
sI58
g10
sI59
I21
sI60
I152
sI61
I14
sI62
I84
sI63
I27
sI64
I100
sI65
I106
sI66
I16
sI67
I36
sI68
I33
sI69
g10
sI70
I34
sI71
I104
sI72
I32
sI73
g10
sI74
I19
sI75
I19
sI76
I49
sI77
I84
sI78
I27
sI79
g10
sI80
I17
sI81
g10
sI82
I17
sI83
I17
sI84
I33
sI85
I14
sI86
g10
sI87
I27
sI88
I28
sI89
g10
sI90
I127
sI91
I28
sI92
I14
sI93
I103
sI94
I24
sI95
I32
sI96
I95
sI97
I19
sI98
I155
sI99
I19
sI100
g10
sI101
I20
sI102
I52
sI103
I52
sI104
I22
sI105
I52
sI106
I52
sI107
I52
sI108
I52
sI109
I52
sI110
I19
sI111
I29
sI112
I28
sI113
I22
sI114
I19
sI115
I17
sI116
I23
sI117
I160
sI118
I40
sI119
I23
sI120
I97
sI121
I85
sI122
I87
sI123
I23
sI124
I43
sI125
g10
sI126
I13
sI127
I17
sI128
I23
sI129
I155
sI130
I25
sI131
I31
sI132
I21
sI133
I21
sI134
g10
sI135
g10
sI136
g10
sI137
g10
sI138
I22
sI139
I28
sI140
g10
sI141
I137
sI142
I19
sI143
I41
sI144
I45
sI145
g10
sI146
I14
sI147
I61
sI148
I76
sI149
I16
sI150
I136
sI151
I91
sI152
g10
sI153
I82
sI154
I14
sI155
I18
sI156
I19
sI157
I120
sI158
I41
sI159
g10
sI160
I41
sI161
I72
sI162
g10
sI163
I120
sI164
g10
sI165
I67
sI166
g10
sI167
I19
sI168
I62
sI169
I49
sI170
I14
sI171
I48
sI172
I36
sI173
I20
sI174
I168
sI175
I27
sI176
I16
sI177
I83
sI178
I83
sI179
I83
sI180
I83
sI181
I163
sI182
I77
sI183
I82
sI184
I84
sI185
g10
sI186
I23
sI187
g10
sI188
I18
sI189
I107
sI190
I83
sI191
I23
sI192
I24
sI193
I32
sI194
g10
sI195
I31
sI196
I18
sI197
I116
sI198
I21
sI199
I14
sI200
I35
sI201
I16
sI202
I44
sI203
I31
sI204
g10
sI205
I18
sI206
g10
sI207
I39
sI208
I26
sI209
I32
sI210
I22
sI211
I18
sI212
g10
sI213
g10
sI214
I115
sI215
I35
sI216
I70
sI217
I19
sI218
I14
sI219
I14
sI220
I74
sI221
I15
sI222
I25
sI223
I25
sI224
I28
sI225
I39
sI226
I41
sI227
I24
sI228
I21
sI229
I40
sI230
I36
sI231
I24
sI232
I27
sI233
I18
sI234
I29
sI235
I16
sI236
I92
sI237
I71
sI238
g10
sI239
I17
sI240
I221
sI241
I61
sI242
I16
sI243
I17
sI244
I55
sI245
I39
sI246
I93
sI247
g10
sI248
g10
sI249
I44
sI250
I19
sI251
I25
sI252
I23
sI253
I16
sI254
I19
sI255
I17
sI256
I85
sI257
I30
sI258
I18
sI259
I27
sI260
I49
sI261
I21
sI262
I20
sI263
I19
sI264
I18
sI265
I19
sI266
I25
sI267
I26
sI268
I33
sI269
I27
sI270
I196
sI271
I26
sI272
I96
sI273
I39
sI274
I31
sI275
I31
sI276
I31
sI277
I31
sI278
I94
sI279
I21
sI280
I25
sI281
I26
sI282
I22
sI283
I14
sI284
I21
sI285
I34
sI286
I33
sI287
I14
sI288
I13
sI289
I94
sI290
I188
sI291
I26
sI292
I19
sI293
I18
sI294
I188
sI295
I14
sI296
I15
sI297
I94
sI298
I15
sI299
I27
sI300
g10
sI301
g10
sI302
I55
sI303
I14
sI304
I31
sI305
I54
sI306
I23
sI307
I31
sI308
I209
sI309
I188
sI310
I50
sI311
I50
sI312
I175
sI313
I32
sI314
I13
sI315
I188
sI316
I188
sI317
I188
sI318
g10
sI319
g10
sI320
g10
sI321
I188
sI322
I188
sI323
I188
sI324
I188
sI325
I188
sI326
I188
sI327
I42
sI328
I160
sI329
I35
sI330
I32
sI331
I188
sI332
I32
sI333
I32
sI334
I32
sI335
I32
sI336
I32
sI337
I52
sI338
I32
sI339
I14
sI340
I25
sI341
I18
sI342
g10
sI343
I130
sI344
I24
sI345
I16
sI346
I182
sI347
I118
sI348
I24
sI349
I106
sI350
I18
sI351
I18
sI352
I18
sI353
I18
sI354
I106
sI355
I18
sI356
I130
sI357
I18
sI358
I18
sI359
g10
sI360
I19
sI361
I19
sI362
I34
sI363
I143
sI364
I188
sI365
I65
sI366
I92
sI367
I19
sI368
I97
sI369
I275
sI370
I31
sI371
I48
sI372
I188
sI373
I24
sI374
I94
sI375
I16
sI376
I39
sI377
I18
sI378
I18
sI379
I23
sI380
I16
sI381
I106
sI382
I18
sI383
I18
sI384
I18
sI385
I17
sI386
I18
sI387
I18
sI388
I31
sI389
I18
sI390
I18
sI391
I18
sI392
I16
sI393
I18
sI394
I18
sI395
I18
sI396
I18
sI397
I19
sI398
I18
sI399
g10
sI400
g10
sI401
I17
sI402
I16
sI403
I41
sI404
I16
sI405
g10
sI406
I16
sI407
I93
sI408
I107
sI409
I106
sI410
g10
sI411
I37
sI412
I52
sI413
I32
sI414
I27
sI415
I35
sI416
I113
sI417
I23
sI418
I18
sI419
I38
sI420
I21
sI421
I53
sI422
g10
sI423
I32
sI424
I21
sI425
I108
sI426
I425
sI427
g10
sI428
I19
sI429
I16
sI430
I23
sI431
I19
sI432
I30
sI433
I19
sI434
I23
sI435
I16
sI436
I14
sI437
I14
sI438
g10
sI439
I14
sI440
I15
sI441
g10
sI442
I17
sI443
I15
sI444
I90
sI445
I13
sI446
I35
sI447
I43
sI448
I77
sI449
I14
sI450
I18
sI451
I49
sI452
I14
sI453
I14
sI454
I14
sI455
I29
sI456
I139
sI457
I15
sI458
I16
sI459
I14
sI460
I64
sI461
I20
sI462
I13
sI463
I14
sI464
I14
sI465
I65
sI466
I33
sI467
I15
sI468
I19
sI469
I28
sI470
I65
sI471
I101
sI472
I18
sI473
I30
sI474
I61
sI475
I89
sI476
I15
sI477
I18
sI478
I65
sI479
g10
sI480
I40
sI481
I15
sI482
I32
sI483
g10
sI484
I23
sI485
I18
sI486
I43
sI487
I20
sI488
I23
sI489
I23
sI490
I22
sI491
I34
sI492
I79
sI493
I77
sI494
I74
sI495
I74
sI496
g10
sI497
I15
sI498
I19
sI499
I155
sI500
I18
sI501
I63
sI502
I17
sI503
I34
sI504
I20
sI505
I33
sI506
I19
sI507
I14
sI508
I15
sI509
I28
sI510
I16
sI511
I48
sI512
I20
sI513
I16
sI514
I25
sI515
I41
sI516
I38
sI517
I27
sI518
I29
sI519
I29
sI520
I18
sI521
I33
sI522
I56
sI523
I18
sI524
I27
sI525
I14
sI526
I14
sI527
I27
sI528
I37
sI529
I18
sI530
I20
sI531
g10
sI532
I36
sI533
I43
sI534
I49
sI535
I13
sI536
I15
sI537
I27
sI538
I188
sI539
I188
sI540
I31
sI541
I30
sI542
I188
sI543
I188
sI544
I188
sI545
I188
sI546
I23
sI547
I188
sI548
I188
sI549
I188
sI550
I29
sI551
I188
sI552
I16
sI553
I40
sI554
I188
sI555
I188
sI556
I44
sI557
I188
sI558
I188
sI559
I188
sI560
I188
sI561
I188
sI562
I15
sI563
I188
sI564
I188
sI565
I188
sI566
I188
sI567
I188
sI568
I188
sI569
I188
sI570
I188
sI571
I188
sI572
I188
sI573
I188
sI574
I188
sI575
I188
sI576
I188
sI577
I188
sI578
g10
sI579
I188
sI580
g10
sI581
I16
sI582
I24
sI583
I24
sI584
I19
sI585
I29
sI586
g10
sI587
I44
sI588
g10
sI589
I27
sI590
I20
sI591
I53
sI592
I16
sI593
I45
sI594
I13
sI595
I13
sI596
I13
sI597
I16
sI598
I18
sI599
I17
sI600
I17
sI601
I16
sI602
I29
sI603
I29
sI604
I29
sI605
I24
sI606
I171
sI607
I20
sI608
g10
sI609
I119
sI610
I21
sI611
I162
sI612
I19
sI613
g10
sI614
I45
sI615
I99
sI616
I24
sI617
I110
sI618
g10
sI619
I16
sI620
I19
sI621
I15
sI622
I15
sI623
I15
sI624
I15
sI625
I15
sI626
I15
sI627
I15
sI628
I15
sI629
I15
sI630
I15
sI631
I15
sI632
I15
sI633
g10
sI634
g10
sI635
I48
sI636
I47
sI637
I47
sI638
I16
sI639
I15
sI640
I33
sI641
I85
sI642
I20
sI643
I16
sI644
I45
sI645
I14
sI646
I42
sI647
I16
sI648
I41
sI649
I35
sI650
I22
sI651
I29
sI652
g10
sI653
I21
sI654
I21
sI655
I35
sI656
I153
sI657
I19
sI658
I16
sI659
I16
sI660
I16
sI661
I16
sI662
I16
sI663
I118
sI664
I138
sI665
I14
sI666
g10
sI667
I130
sI668
I15
sI669
I90
sI670
I14
sI671
I30
sI672
I1
sI673
I16
sI674
I27
sI675
I16
sI676
I19
sI677
g10
sI678
I16
sI679
I14
sI680
I16
sI681
I108
sI682
I17
sI683
I19
sI684
I188
sI685
I188
sI686
I188
sI687
I188
sI688
I188
sI689
I188
sI690
I32
sI691
I188
sI692
g10
sI693
I188
sI694
I188
sI695
I188
sI696
I188
sI697
I15
sI698
I29
sI699
g10
sI700
I27
sI701
I24
sI702
g10
sI703
I47
sI704
I26
sI705
g10
sI706
I70
sI707
I33
sI708
I20
sI709
I23
sI710
g10
sI711
I23
sI712
I17
sI713
I13
sI714
I14
sI715
I16
sI716
I30
sI717
I15
sI718
I90
sI719
I21
sI720
I36
sI721
I48
sI722
I65
sI723
I46
sI724
I26
sI725
I20
sI726
I20
sI727
I22
sI728
I25
sI729
I15
sI730
g10
sI731
I40
sI732
I15
sI733
I39
sI734
I38
sI735
I37
sI736
I16
sI737
I40
sI738
I18
sI739
I25
sI740
I15
sI741
g10
sI742
I25
sI743
I24
sI744
I26
sI745
I36
sI746
I20
sI747
I14
sI748
I60
sI749
I15
sI750
I60
sI751
I49
sI752
I49
sI753
I49
sI754
I49
sI755
I49
sI756
I49
sI757
g10
sI758
I25
sI759
I39
sI760
g10
sI761
I25
sI762
I22
sI763
I25
sI764
I17
sI765
I109
sI766
I175
sI767
I16
sI768
I21
sI769
I20
sI770
I145
sI771
I27
sI772
I17
sI773
g10
sI774
I65
sI775
I125
sI776
I28
sI777
I22
sI778
g10
sI779
I23
sI780
I18
sI781
I14
sI782
I23
sI783
I18
sI784
g10
sI785
I100
sI786
I76
sI787
I17
sI788
I39
sI789
I38
sI790
I38
sI791
I37
sI792
I37
sI793
I36
sI794
I88
sI795
I16
sI796
I88
sI797
I20
sI798
I88
sI799
I88
sI800
I88
sI801
I14
sI802
I14
sI803
I90
sI804
I89
sI805
I42
sI806
I42
sI807
I18
sI808
I13
sI809
I12
sI810
I31
sI811
I85
sI812
I21
sI813
I81
sI814
I81
sI815
I81
sI816
I81
sI817
I21
sI818
I94
sI819
I14
sI820
I17
sI821
I29
sI822
I18
sI823
I18
sI824
I17
sI825
I31
sI826
I19
sI827
I59
sI828
I18
sI829
g10
sI830
g10
sI831
I39
sI832
I14
sI833
I18
sI834
I32
sI835
I28
sI836
I58
sI837
I28
sI838
I31
sI839
I28
sI840
I16
sI841
I21
sI842
I31
sI843
I25
sI844
I32
sI845
I137
sI846
g10
sI847
I16
sI848
I26
sI849
I18
sI850
I55
sI851
I16
sI852
I19
sI853
I40
sI854
I34
sI855
g10
sI856
I40
sI857
I27
sI858
I41
sI859
I22
sI860
I48
sI861
I124
sI862
g10
sI863
I13
sI864
I19
sI865
I25
sI866
I20
sI867
I21
sI868
I45
sI869
I17
sI870
I28
sI871
g10
sI872
I31
sI873
I15
sI874
I191
sI875
g10
sI876
I56
sI877
g10
sI878
I19
sI879
I19
sI880
I19
sI881
I18
sI882
I18
sI883
I18
sI884
I17
sI885
I19
sI886
I14
sI887
I61
sI888
I239
sI889
I39
sI890
I39
sI891
I39
sI892
I21
sI893
g10
sI894
g10
sI895
I75
sI896
I70
sI897
I57
sI898
I21
sI899
g10
sI900
I13
sI901
I54
sI902
I40
sI903
I16
sI904
g10
sI905
I24
sI906
I30
sI907
I67
sI908
I84
sI909
I14
sI910
I16
sI911
I17
sI912
I13
sI913
I31
sI914
I32
sI915
I16
sI916
I17
sI917
I38
sI918
I31
sI919
I16
sI920
g10
sI921
I14
sI922
g10
sI923
I13
sI924
I27
sI925
I26
sI926
I16
sI927
I27
sI928
I38
sI929
I25
sI930
I27
sI931
I29
sI932
I54
sI933
I17
sI934
I14
sI935
I28
sI936
I14
sI937
I25
sI938
I66
sI939
I110
sI940
I18
sI941
I51
sI942
I15
sI943
I70
sI944
I19
sI945
I18
sI946
I33
sI947
I15
sI948
g10
sI949
g10
sI950
I16
sI951
I26
sI952
I15
sI953
I26
sI954
I15
sI955
g10
sI956
I30
sI957
g10
sI958
I15
sI959
I36
sI960
I19
sI961
I16
sI962
I14
sI963
I16
sI964
I28
sI965
I16
sI966
I14
sI967
I16
sI968
g10
sI969
I27
sI970
I29
sI971
I16
sI972
I16
sI973
I16
sI974
I16
sI975
I16
sI976
I16
sI977
I16
sI978
g10
sI979
I16
sI980
I16
sI981
I16
sI982
I21
sI983
I16
sI984
I24
sI985
I16
sI986
I16
sI987
I16
sI988
I16
sI989
I387
sI990
I35
sI991
I99
sI992
I20
sI993
I18
sI994
I17
sI995
I89
sI996
I18
sI997
g10
sI998
I52
sI999
g10
sI1000
I25
sI1001
I25
sI1002
I25
sI1003
I19
sI1004
I18
sI1005
I19
sI1006
I21
sI1007
I15
sI1008
g10
sI1009
I42
sI1010
I22
sI1011
I28
sI1012
I39
sI1013
I18
sI1014
I24
sI1015
I14
sI1016
I35
sI1017
g10
sI1018
I16
sI1019
I26
sI1020
I25
sI1021
I17
sI1022
I28
sI1023
I26
sI1024
I30
sI1025
I44
sI1026
I44
sI1027
I44
sI1028
I14
sI1029
I71
sI1030
I40
sI1031
I26
sI1032
I74
sI1033
I42
sI1034
g10
sI1035
I21
sI1036
I34
sI1037
I77
sI1038
I26
sI1039
I48
sI1040
I21
sI1041
I200
sI1042
I54
sI1043
I18
sI1044
g10
sI1045
I14
sI1046
I14
sI1047
g10
sI1048
I14
sI1049
I15
sI1050
I14
sI1051
I14
sI1052
I14
sI1053
I14
sI1054
I14
sI1055
g10
sI1056
I17
sI1057
I13
sI1058
I21
sI1059
I27
sI1060
I103
sI1061
I22
sI1062
I103
sI1063
I38
sI1064
g10
sI1065
I19
sI1066
I17
sI1067
I34
sI1068
I20
sI1069
I21
sI1070
I16
sI1071
I16
sI1072
I107
sI1073
I14
sI1074
I54
sI1075
I109
sI1076
I17
sI1077
I79
sI1078
I17
sI1079
I17
sI1080
I17
sI1081
I27
sI1082
I19
sI1083
I25
sI1084
I55
sI1085
I26
sI1086
I16
sI1087
I98
sI1088
I25
sI1089
I25
sI1090
I44
sI1091
I37
sI1092
I16
sI1093
I54
sI1094
I14
sI1095
I108
sI1096
I18
sI1097
I14
sI1098
I28
sI1099
I19
sI1100
I18
sI1101
I56
sI1102
I14
sI1103
I44
sI1104
I124
sI1105
g10
sI1106
I28
sI1107
I18
sI1108
I25
sI1109
I15
sI1110
g10
sI1111
g10
sI1112
I134
sI1113
I19
sI1114
I16
sI1115
I54
sI1116
I134
sI1117
I188
sI1118
I30
sI1119
I134
sI1120
I97
sI1121
I19
sI1122
I134
sI1123
I31
sI1124
I14
sI1125
g10
sI1126
I-11
sI1127
I90
sI1128
I134
sI1129
I35
sI1130
I28
sI1131
I18
sI1132
I134
sI1133
I15
sI1134
I75
sI1135
I21
sI1136
I21
sI1137
I21
sI1138
I21
sI1139
I21
sI1140
I21
sI1141
I21
sI1142
I27
sI1143
I134
sI1144
g10
sI1145
I53
sI1146
I18
sI1147
I34
sI1148
I14
sI1149
I14
sI1150
g10
sI1151
g10
sI1152
I134
sI1153
I17
sI1154
g10
sI1155
I25
sI1156
I32
sI1157
I134
sI1158
I31
sI1159
I35
sI1160
I45
sI1161
I26
sI1162
I23
sI1163
I18
sI1164
I59
sI1165
I59
sI1166
I59
sI1167
I59
sI1168
I59
sI1169
I59
sI1170
I59
sI1171
I59
sI1172
I59
sI1173
I59
sI1174
I59
sI1175
I134
sI1176
I86
sI1177
I86
sI1178
g10
sI1179
I134
sI1180
I24
sI1181
I175
sI1182
I66
sI1183
I134
sI1184
I41
sI1185
I134
sI1186
I21
sI1187
I32
sI1188
I38
sI1189
I25
sI1190
I34
sI1191
I128
sI1192
I188
sI1193
I15
sI1194
I22
sI1195
g10
sI1196
g10
sI1197
I47
sI1198
I61
sI1199
I17
sI1200
I30
sI1201
I31
sI1202
g10
sI1203
I134
sI1204
I17
sI1205
g10
sI1206
I24
sI1207
I16
sI1208
I24
sI1209
I31
sI1210
I19
sI1211
I19
sI1212
I31
sI1213
g10
sI1214
I38
sI1215
I26
sI1216
I28
sI1217
I17
sI1218
I188
sI1219
I188
sI1220
I188
sI1221
I188
sI1222
I40
sI1223
I188
sI1224
I188
sI1225
I188
sI1226
I188
sI1227
I188
sI1228
g10
sI1229
I188
sI1230
g10
sI1231
g10
sI1232
I107
sI1233
I40
sI1234
I39
sI1235
I39
sI1236
I18
sI1237
I24
sI1238
I50
sI1239
I39
sI1240
I59
sI1241
I109
sI1242
I60
sI1243
I20
sI1244
I101
sI1245
I22
sI1246
I44
sI1247
I15
sI1248
I49
sI1249
I25
sI1250
I42
sI1251
I38
sI1252
g10
sI1253
I34
sI1254
I74
sI1255
I16
sI1256
I32
sI1257
I23
sI1258
I56
sI1259
g10
sI1260
I17
sI1261
I20
sI1262
I29
sI1263
I16
sI1264
I123
sI1265
I63
sI1266
I24
sI1267
g10
sI1268
I54
sI1269
g10
sI1270
I15
sI1271
I16
sI1272
I61
sI1273
I32
sI1274
I152
sI1275
I18
sI1276
I21
sI1277
g10
sI1278
I32
sI1279
I45
sI1280
I157
sI1281
I78
sI1282
I21
sI1283
I21
sI1284
I26
sI1285
I211
sI1286
I58
sI1287
I32
sI1288
I28
sI1289
I31
sI1290
I34
sI1291
I49
sI1292
I191
sI1293
I32
sI1294
I16
sI1295
I26
sI1296
I41
sI1297
I22
sI1298
I59
sI1299
I14
sI1300
I38
sI1301
I59
sI1302
I28
sI1303
I35
sI1304
I35
sI1305
I33
sI1306
I59
sI1307
I25
sI1308
I18
sI1309
I30
sI1310
I128
sI1311
g10
sI1312
I23
sI1313
I21
sI1314
I59
sI1315
g10
sI1316
g10
sI1317
I15
sI1318
I14
sI1319
g10
sI1320
I15
sI1321
I14
sI1322
I20
sI1323
I52
sI1324
g10
sI1325
I23
sI1326
I28
sI1327
I28
sI1328
I46
sI1329
I16
sI1330
I61
sI1331
I76
sI1332
I144
sI1333
I21
sI1334
I41
sI1335
I22
sI1336
I192
sI1337
I16
sI1338
I39
sI1339
I21
sI1340
I21
sI1341
I21
sI1342
I21
sI1343
I21
sI1344
I21
sI1345
I21
sI1346
I21
sI1347
I19
sI1348
I16
sI1349
I34
sI1350
I48
sI1351
I18
sI1352
I15
sI1353
I32
sI1354
I16
sI1355
I188
sI1356
I188
sI1357
I188
sI1358
I188
sI1359
I188
sI1360
I188
sI1361
I188
sI1362
I188
sI1363
I188
sI1364
I188
sI1365
I188
sI1366
g10
sI1367
I17
sI1368
I108
sI1369
g10
sI1370
I55
sI1371
I52
sI1372
I55
sI1373
I55
sI1374
I55
sI1375
I55
sI1376
I55
sI1377
I55
sI1378
I55
sI1379
I55
sI1380
g10
sI1381
g10
sI1382
I188
sI1383
I188
sI1384
I55
sI1385
I55
sI1386
I53
sI1387
I55
sI1388
I54
sI1389
I52
sI1390
I53
sI1391
I188
sI1392
I188
sI1393
I188
sI1394
I53
sI1395
I53
sI1396
I34
sI1397
I14
sI1398
g10
sI1399
I63
sI1400
I22
sI1401
I46
sI1402
I23
sI1403
I34
sI1404
I60
sI1405
I188
sI1406
I37
sI1407
I188
sI1408
I188
sI1409
I188
sI1410
I188
sI1411
I188
sI1412
I188
sI1413
I188
sI1414
I188
sI1415
I188
sI1416
I188
sI1417
I188
sI1418
I44
sI1419
I188
sI1420
I188
sI1421
I188
sI1422
I188
sI1423
I188
sI1424
I188
sI1425
g10
sI1426
I188
sI1427
I188
sI1428
I188
sI1429
g10
sI1430
I188
sI1431
g10
sI1432
g10
sI1433
I188
sI1434
I188
sI1435
I188
sI1436
I188
sI1437
I188
sI1438
I188
sI1439
I188
sI1440
I188
sI1441
I188
sI1442
I188
sI1443
I188
sI1444
I188
sI1445
I188
sI1446
I35
sI1447
I30
sI1448
I37
sI1449
I30
sI1450
I23
sI1451
I59
sI1452
g10
sI1453
I34
sI1454
I15
sI1455
I17
sI1456
I252
sI1457
I59
sI1458
I134
sI1459
I53
sI1460
I25
sI1461
I21
sI1462
g10
sI1463
I14
sI1464
I84
sI1465
I86
sI1466
I20
sI1467
I29
sI1468
I73
sI1469
g10
sI1470
I24
sI1471
I22
sI1472
I20
sI1473
I53
sI1474
I21
sI1475
I32
sI1476
I16
sI1477
I13
sI1478
I18
sI1479
I42
sI1480
I19
sI1481
I43
sI1482
I103
sI1483
I43
sI1484
I15
sI1485
I48
sI1486
I18
sI1487
I24
sI1488
I24
sI1489
I27
sI1490
I48
sI1491
I29
sI1492
I38
sI1493
I14
sI1494
I40
sI1495
I15
sI1496
I82
sI1497
I27
sI1498
I40
sI1499
I18
sI1500
I60
sI1501
I16
sI1502
I26
sI1503
I19
sI1504
I25
sI1505
I18
sI1506
I16
sI1507
I16
sI1508
I25
sI1509
I18
sI1510
I27
sI1511
I38
sI1512
I14
sI1513
I16
sI1514
I19
sI1515
I26
sI1516
I78
sI1517
g10
sI1518
g10
sI1519
I16
sI1520
I37
sI1521
I15
sI1522
g10
sI1523
I19
sI1524
I19
sI1525
I17
sI1526
I17
sI1527
I17
sI1528
I19
sI1529
I19
sI1530
I19
sI1531
I17
sI1532
I17
sI1533
I17
sI1534
I17
sI1535
I14
sI1536
I17
sI1537
I122
sI1538
I190
sI1539
I23
sI1540
I16
sI1541
I25
sI1542
I123
sI1543
I19
sI1544
I33
sI1545
I17
sI1546
I62
sI1547
I150
sI1548
g10
sI1549
I20
sI1550
I63
sI1551
I20
sI1552
g10
sI1553
I27
sI1554
I131
sI1555
g10
sI1556
I39
sI1557
g10
sI1558
I19
sI1559
I63
sI1560
I107
sI1561
I25
sI1562
g10
sI1563
g10
sI1564
I44
sI1565
I33
sI1566
I24
sI1567
I33
sI1568
I15
sI1569
I60
sI1570
I22
sI1571
I35
sI1572
I51
sI1573
I18
sI1574
I14
sI1575
I50
sI1576
I17
sI1577
I17
sI1578
I21
sI1579
g10
sI1580
I43
sI1581
I24
sI1582
I37
sI1583
I114
sI1584
I23
sI1585
I48
sI1586
I47
sI1587
g10
sI1588
I41
sI1589
g10
sI1590
I44
sI1591
I78
sI1592
I15
sI1593
g10
sI1594
I109
sI1595
g10
sI1596
I20
sI1597
I77
sI1598
I48
sI1599
I14
sI1600
I57
sI1601
I112
sI1602
I48
sI1603
I18
sI1604
I48
sI1605
I37
sI1606
I25
sI1607
I30
sI1608
g10
sI1609
I15
sI1610
I15
sI1611
I48
sI1612
I60
sI1613
I32
sI1614
g10
sI1615
I46
sI1616
I14
sI1617
I101
sI1618
I188
sI1619
I133
sI1620
I100
sI1621
I22
sI1622
I25
sI1623
I26
sI1624
I63
sI1625
I25
sI1626
I96
sI1627
I25
sI1628
I25
sI1629
I40
sI1630
I188
sI1631
I188
sI1632
I188
sI1633
I188
sI1634
I188
sI1635
I188
sI1636
I188
sI1637
I188
sI1638
I188
sI1639
I188
sI1640
I188
sI1641
I188
sI1642
I26
sI1643
g10
sI1644
I14
sI1645
I18
sI1646
I16
sI1647
I37
sI1648
I48
sI1649
I41
sI1650
I13
sI1651
I28
sI1652
I14
sI1653
I14
sI1654
I14
sI1655
I27
sI1656
g10
sI1657
I76
sI1658
I43
sI1659
I72
sI1660
I29
sI1661
g10
sI1662
I15
sI1663
I15
sI1664
I31
sI1665
I46
sI1666
I33
sI1667
I85
sI1668
I16
sI1669
I22
sI1670
I32
sI1671
I16
sI1672
I48
sI1673
I48
sI1674
g10
sI1675
I13
sI1676
I72
sI1677
I51
sI1678
I68
sI1679
I68
sI1680
I68
sI1681
I68
sI1682
I18
sI1683
g10
sI1684
I16
sI1685
I48
sI1686
I16
sI1687
I38
sI1688
I108
sI1689
I48
sI1690
I108
sI1691
I17
sI1692
g10
sI1693
g10
sI1694
I43
sI1695
I30
sI1696
I14
sI1697
I15
sI1698
I48
sI1699
I203
sI1700
I21
sI1701
g10
sI1702
I21
sI1703
I21
sI1704
I71
sI1705
I23
sI1706
I188
sI1707
I14
sI1708
I40
sI1709
I44
sI1710
I26
sI1711
I14
sI1712
I19
sI1713
I28
sI1714
I18
sI1715
I19
sI1716
I20
sI1717
I38
sI1718
I78
sI1719
I25
sI1720
g10
sI1721
I42
sI1722
I16
sI1723
I17
sI1724
I19
sI1725
I14
sI1726
g10
sI1727
g10
sI1728
g10
sI1729
g10
sI1730
I18
sI1731
I19
sI1732
I19
sI1733
I19
sI1734
I15
sI1735
I15
sI1736
I18
sI1737
I56
sI1738
I115
sI1739
I15
sI1740
I24
sI1741
I31
sI1742
I14
sI1743
I19
sI1744
I28
sI1745
I17
sI1746
g10
sI1747
I17
sI1748
I22
sI1749
I178
sI1750
I22
sI1751
I35
sI1752
I166
sI1753
I73
sI1754
I14
sI1755
I15
sI1756
I24
sI1757
I18
sI1758
I20
sI1759
I57
sI1760
I28
sI1761
I24
sI1762
I72
sI1763
g10
sI1764
I73
sI1765
I26
sI1766
I65
sI1767
I28
sI1768
I59
sI1769
I37
sI1770
I30
sI1771
I14
sI1772
I18
sI1773
I462
sI1774
I30
sI1775
I20
sI1776
I53
sI1777
I35
sI1778
I17
sI1779
g10
sI1780
I41
sI1781
g10
sI1782
I14
sI1783
I15
sI1784
I44
sI1785
I14
sI1786
g10
sI1787
I31
sI1788
I78
sI1789
I17
sI1790
I188
sI1791
I87
sI1792
g10
sI1793
I33
sI1794
I21
sI1795
I19
sI1796
I62
sI1797
I26
sI1798
I66
sI1799
I14
sI1800
I36
sI1801
I71
sI1802
g10
sI1803
I19
sI1804
g10
sI1805
I37
sI1806
I24
sI1807
g10
sI1808
I32
sI1809
I61
sI1810
I31
sI1811
I32
sI1812
I61
sI1813
I102
sI1814
I15
sI1815
I24
sI1816
g10
sI1817
I51
sI1818
I31
sI1819
I18
sI1820
I36
sI1821
I51
sI1822
I21
sI1823
I30
sI1824
I22
sI1825
I17
sI1826
I15
sI1827
I35
sI1828
I32
sI1829
I97
sI1830
I29
sI1831
I12
sI1832
I16
sI1833
I84
sI1834
I50
sI1835
I50
sI1836
g10
sI1837
I16
sI1838
I15
sI1839
I54
sI1840
g10
sI1841
I27
sI1842
I21
sI1843
I130
sI1844
I15
sI1845
g10
sI1846
I32
sI1847
I33
sI1848
I27
sI1849
I18
sI1850
I20
sI1851
g10
sI1852
I85
sI1853
I32
sI1854
I36
sI1855
I19
sI1856
I27
sI1857
I18
sI1858
I25
sI1859
I25
sI1860
I50
sI1861
I14
sI1862
g10
sI1863
I28
sI1864
I93
sI1865
I23
sI1866
I15
sI1867
I16
sI1868
I24
sI1869
I21
sI1870
I163
sI1871
I91
sI1872
I15
sI1873
I13
sI1874
I13
sI1875
I13
sI1876
I21
sI1877
I17
sI1878
I17
sI1879
I15
sI1880
I18
sI1881
I19
sI1882
I15
sI1883
I15
sI1884
I25
sI1885
g10
sI1886
I19
sI1887
I26
sI1888
I16
sI1889
I19
sI1890
I18
sI1891
I14
sI1892
I22
sI1893
I19
sI1894
I15
sI1895
g10
sI1896
I19
sI1897
I50
sI1898
I22
sI1899
I26
sI1900
I18
sI1901
g10
sI1902
I23
sI1903
I73
sI1904
I19
sI1905
I18
sI1906
I17
sI1907
I17
sI1908
I31
sI1909
I21
sI1910
I17
sI1911
I17
sI1912
I75
sI1913
I24
sI1914
I32
sI1915
I58
sI1916
g10
sI1917
I74
sI1918
I26
sI1919
I18
sI1920
I71
sI1921
I24
sI1922
I20
sI1923
I19
sI1924
I42
sI1925
I39
sI1926
I32
sI1927
I39
sI1928
I42
sI1929
I28
sI1930
I31
sI1931
g10
sI1932
I46
sI1933
I46
sI1934
I18
sI1935
I23
sI1936
I30
sI1937
I60
sI1938
g10
sI1939
I18
sI1940
I16
sI1941
I68
sI1942
I23
sI1943
I15
sI1944
g10
sI1945
I64
sI1946
I49
sI1947
I18
sI1948
I29
sI1949
I56
sI1950
I39
sI1951
I14
sI1952
I16
sI1953
I19
sI1954
I35
sI1955
I36
sI1956
I15
sI1957
I82
sI1958
I19
sI1959
g10
sI1960
g10
sI1961
I25
sI1962
I23
sI1963
I19
sI1964
I21
sI1965
I45
sI1966
I14
sI1967
I20
sI1968
g10
sI1969
I60
sI1970
I23
sI1971
I23
sI1972
g10
sI1973
I16
sI1974
I16
sI1975
I16
sI1976
I19
sI1977
I16
sI1978
I16
sI1979
I16
sI1980
I16
sI1981
I15
sI1982
I17
sI1983
I23
sI1984
I18
sI1985
I66
sI1986
I188
sI1987
I66
sI1988
I81
sI1989
I28
sI1990
g10
sI1991
g10
sI1992
I144
sI1993
I24
sI1994
I25
sI1995
I14
sI1996
I22
sI1997
I17
sI1998
I44
sI1999
g10
sI2000
I45
sI2001
I35
sI2002
I42
sI2003
I23
sI2004
I52
sI2005
I21
sI2006
I154
sI2007
I25
sI2008
I41
sI2009
I29
sI2010
I14
sI2011
I18
sI2012
I16
sI2013
I18
sI2014
I77
sI2015
I39
sI2016
I21
sI2017
I57
sI2018
I56
sI2019
I29
sI2020
I16
sI2021
I34
sI2022
I16
sI2023
g10
sI2024
I16
sI2025
I24
sI2026
I49
sI2027
I93
sI2028
I36
sI2029
I17
sI2030
I16
sI2031
I23
sI2032
I43
sI2033
I37
sI2034
I82
sI2035
I26
sI2036
I17
sI2037
I22
sI2038
I23
sI2039
I30
sI2040
I17
sI2041
I29
sI2042
I18
sI2043
I16
sI2044
I52
sI2045
I83
sI2046
I14
sI2047
I54
sI2048
I29
sI2049
g10
sI2050
g10
sI2051
I14
sI2052
I41
sI2053
I13
sI2054
I16
sI2055
I39
sI2056
I18
sI2057
I19
sI2058
I27
sI2059
I18
sI2060
I16
sI2061
I19
sI2062
I17
sI2063
I27
sI2064
I22
sI2065
I264
sI2066
I61
sI2067
I60
sI2068
I26
sI2069
I30
sI2070
I18
sI2071
I16
sI2072
I14
sI2073
I18
sI2074
I16
sI2075
g10
sI2076
I32
sI2077
I15
sI2078
I19
sI2079
I15
sI2080
I44
sI2081
I18
sI2082
I187
sI2083
I23
sI2084
I57
sI2085
I23
sI2086
I16
sI2087
I33
sI2088
I23
sI2089
I62
sI2090
I63
sI2091
g10
sI2092
I60
sI2093
I13
sI2094
g10
sI2095
g10
sI2096
g10
sI2097
I34
sI2098
g10
sI2099
I226
sI2100
I20
sI2101
I25
sI2102
I16
sI2103
I27
sI2104
I15
sI2105
I24
sI2106
I21
sI2107
I72
sI2108
I15
sI2109
I15
sI2110
I60
sI2111
I36
sI2112
g10
sI2113
I36
sI2114
g10
sI2115
g10
sI2116
I28
sI2117
I14
sI2118
I20
sI2119
I23
sI2120
I18
sI2121
I22
sI2122
g10
sI2123
I25
sI2124
I86
sI2125
I14
sI2126
I14
sI2127
I73
sI2128
I15
sI2129
I26
sI2130
I12
sI2131
I12
sI2132
I12
sI2133
I14
sI2134
I49
sI2135
I46
sI2136
I77
sI2137
I76
sI2138
I76
sI2139
I76
sI2140
I18
sI2141
I16
sI2142
I36
sI2143
I169
sI2144
I51
sI2145
I145
sI2146
I247
sI2147
I37
sI2148
I62
sI2149
I18
sI2150
I130
sI2151
I41
sI2152
I43
sI2153
I98
sI2154
I16
sI2155
I15
sI2156
I15
sI2157
g10
sI2158
I15
sI2159
I14
sI2160
g10
sI2161
g10
sI2162
I26
sI2163
g10
sI2164
I30
sI2165
g10
sI2166
I26
sI2167
I17
sI2168
I18
sI2169
I17
sI2170
I62
sI2171
I21
sI2172
I50
sI2173
I17
sI2174
I27
sI2175
I14
sI2176
I15
sI2177
I33
sI2178
g10
sI2179
I17
sI2180
I35
sI2181
I16
sI2182
I24
sI2183
g10
sI2184
I14
sI2185
I14
sI2186
I19
sI2187
I17
sI2188
I80
sI2189
I31
sI2190
I26
sI2191
I14
sI2192
I65
sI2193
g10
sI2194
I23
sI2195
g10
sI2196
I18
sI2197
I24
sI2198
I18
sI2199
I42
sI2200
I15
sI2201
I20
sI2202
g10
sI2203
g10
sI2204
I24
sI2205
I17
sI2206
I44
sI2207
I19
sI2208
g10
sI2209
g10
sI2210
I33
sI2211
I25
sI2212
I145
sI2213
g10
sI2214
I59
sI2215
I29
sI2216
I17
sI2217
I23
sI2218
I48
sI2219
I55
sI2220
I18
sI2221
g10
sI2222
I29
sI2223
I18
sI2224
g10
sI2225
I42
sI2226
I18
sI2227
I15
sI2228
g10
sI2229
g10
sI2230
I113
sI2231
I30
sI2232
I19
sI2233
I99
sI2234
I17
sI2235
I15
sI2236
I98
sI2237
g10
sI2238
I97
sI2239
I19
sI2240
I17
sI2241
I24
sI2242
I22
sI2243
I18
sI2244
g10
sI2245
I96
sI2246
I29
sI2247
I94
sI2248
g10
sI2249
I13
sI2250
g10
sI2251
g10
sI2252
g10
sI2253
g10
sI2254
I14
sI2255
g10
sI2256
g10
sI2257
g10
sI2258
g10
sI2259
I71
sI2260
I26
sI2261
g10
sI2262
I16
sI2263
g10
sI2264
I16
sI2265
I44
sI2266
I23
sI2267
I188
sI2268
I188
sI2269
I188
sI2270
I188
sI2271
I188
sI2272
I188
sI2273
I188
sI2274
I188
sI2275
I188
sI2276
I188
sI2277
g10
sI2278
g10
sI2279
g10
sI2280
I27
sI2281
I174
sI2282
I23
sI2283
I23
sI2284
I22
sI2285
I188
sI2286
I188
sI2287
I188
sI2288
I188
sI2289
I188
sI2290
I188
sI2291
I188
sI2292
I188
sI2293
I188
sI2294
I188
sI2295
I188
sI2296
g10
sI2297
I50
sI2298
I188
sI2299
I188
sI2300
I188
sI2301
I188
sI2302
I188
sI2303
I188
sI2304
I188
sI2305
I188
sI2306
I188
sI2307
I188
sI2308
I188
sI2309
I16
sI2310
I153
sI2311
I32
sI2312
I14
sI2313
I91
sI2314
I24
sI2315
I188
sI2316
I188
sI2317
I188
sI2318
I188
sI2319
I31
sI2320
I188
sI2321
I188
sI2322
I188
sI2323
g10
sI2324
I188
sI2325
I188
sI2326
I188
sI2327
I71
sI2328
I188
sI2329
I188
sI2330
I188
sI2331
I188
sI2332
I188
sI2333
I188
sI2334
I188
sI2335
I188
sI2336
I188
sI2337
I188
sI2338
I188
sI2339
I188
sI2340
I30
sI2341
I32
sI2342
I17
sI2343
I14
sI2344
I39
sI2345
I227
sI2346
I36
sI2347
I140
sI2348
I222
sI2349
g10
sI2350
g10
sI2351
I19
sI2352
I39
sI2353
I28
sI2354
I168
sI2355
I180
sI2356
I137
sI2357
I24
sI2358
g10
sI2359
I129
sI2360
I26
sI2361
I133
sI2362
I17
sI2363
g10
sI2364
I39
sI2365
I87
sI2366
I27
sI2367
I203
sI2368
I208
sI2369
I27
sI2370
g10
sI2371
I15
sI2372
I36
sI2373
I114
sI2374
I20
sI2375
I100
sI2376
I77
sI2377
I29
sI2378
I211
sI2379
I36
sI2380
I36
sI2381
I19
sI2382
I24
sI2383
I22
sI2384
I79
sI2385
I141
sI2386
I72
sI2387
g10
sI2388
I37
sI2389
I29
sI2390
I137
sI2391
I160
sI2392
I15
sI2393
g10
sI2394
I27
sI2395
I138
sI2396
I20
sI2397
g10
sI2398
I14
sI2399
I21
sI2400
I46
sI2401
I19
sI2402
I16
sI2403
I137
sI2404
g10
sI2405
I14
sI2406
I35
sI2407
I23
sI2408
I40
sI2409
I19
sI2410
I15
sI2411
I14
sI2412
I26
sI2413
I21
sI2414
I26
sI2415
I13
sI2416
I45
sI2417
I59
sI2418
I46
sI2419
I14
sI2420
I14
sI2421
I14
sI2422
g10
sI2423
I30
sI2424
g10
sI2425
I15
sI2426
I28
sI2427
I27
sI2428
I28
sI2429
I24
sI2430
I21
sI2431
I57
sI2432
g10
sI2433
I14
sI2434
I21
sI2435
I25
sI2436
I23
sI2437
I26
sI2438
I46
sI2439
I128
sI2440
I22
sI2441
I17
sI2442
g10
sI2443
I149
sI2444
I18
sI2445
I175
sI2446
I43
sI2447
I20
sI2448
I16
sI2449
I15
sI2450
I30
sI2451
I18
sI2452
I42
sI2453
I40
sI2454
I22
sI2455
I79
sI2456
I41
sI2457
I25
sI2458
I19
sI2459
I41
sI2460
g10
sI2461
I49
sI2462
I120
sI2463
I49
sI2464
I30
sI2465
I41
sI2466
g10
sI2467
I13
sI2468
I48
sI2469
I73
sI2470
I44
sI2471
I29
sI2472
I64
sI2473
I44
sI2474
g10
sI2475
g10
sI2476
g10
sI2477
I13
sI2478
g10
sI2479
g10
sI2480
g10
sI2481
I24
sI2482
I15
sI2483
g10
sI2484
I19
sI2485
I18
sI2486
I18
sI2487
g10
sI2488
I52
sI2489
I16
sI2490
I23
sI2491
I18
sI2492
I18
sI2493
I18
sI2494
I16
sI2495
I38
sI2496
I17
sI2497
g10
sI2498
I36
sI2499
I22
sI2500
I14
sI2501
I35
sI2502
I19
sI2503
I71
sI2504
I19
sI2505
I72
sI2506
I23
sI2507
I14
sI2508
I17
sI2509
I14
sI2510
g10
sI2511
I14
sI2512
I30
sI2513
I118
sI2514
I33
sI2515
I22
sI2516
I25
sI2517
g10
sI2518
I16
sI2519
g10
sI2520
g10
sI2521
I19
sI2522
I86
sI2523
g10
sI2524
g10
sI2525
I22
sI2526
I27
sI2527
g10
sI2528
I31
sI2529
I188
sI2530
I107
sI2531
g10
sI2532
I58
sI2533
I40
sI2534
g10
sI2535
I57
sI2536
I52
sI2537
g10
sI2538
I37
sI2539
I29
sI2540
I85
sI2541
g10
sI2542
I71
sI2543
I44
sI2544
g10
sI2545
I22
sI2546
I83
sI2547
I33
sI2548
I18
sI2549
g10
sI2550
I32
sI2551
I34
sI2552
I15
sI2553
I165
sI2554
I79
sI2555
I77
sI2556
I78
sI2557
I52
sI2558
I76
sI2559
I76
sI2560
I76
sI2561
I68
sI2562
I42
sI2563
I48
sI2564
I19
sI2565
I82
sI2566
I47
sI2567
I30
sI2568
I18
sI2569
I71
sI2570
g10
sI2571
I26
sI2572
I26
sI2573
I96
sI2574
I99
sI2575
I33
sI2576
I25
sI2577
I30
sI2578
g10
sI2579
g10
sI2580
I35
sI2581
I58
sI2582
I28
sI2583
I63
sI2584
I63
sI2585
I29
sI2586
I67
sI2587
I33
sI2588
I33
sI2589
I33
sI2590
I54
sI2591
I60
sI2592
I14
sI2593
I54
sI2594
g10
sI2595
I14
sI2596
I19
sI2597
g10
sI2598
I15
sI2599
I14
sI2600
I31
sI2601
I14
sI2602
I15
sI2603
I47
sI2604
I14
sI2605
I28
sI2606
I14
sI2607
I44
sI2608
I66
sI2609
I66
sI2610
I66
sI2611
I65
sI2612
I23
sI2613
I16
sI2614
I16
sI2615
I16
sI2616
I35
sI2617
I188
sI2618
I41
sI2619
I18
sI2620
I13
sI2621
I55
sI2622
I15
sI2623
I18
sI2624
I188
sI2625
I188
sI2626
I14
sI2627
I13
sI2628
I122
sI2629
I188
sI2630
I15
sI2631
I141
sI2632
I188
sI2633
I16
sI2634
I24
sI2635
I17
sI2636
I188
sI2637
I36
sI2638
I188
sI2639
I62
sI2640
I188
sI2641
I19
sI2642
I61
sI2643
I61
sI2644
I61
sI2645
I61
sI2646
I54
sI2647
g10
sI2648
I61
sI2649
I61
sI2650
I59
sI2651
I48
sI2652
I58
sI2653
I58
sI2654
I56
sI2655
I56
sI2656
I19
sI2657
I16
sI2658
I33
sI2659
I33
sI2660
I33
sI2661
I33
sI2662
I17
sI2663
I33
sI2664
I14
sI2665
I14
sI2666
I21
sI2667
I28
sI2668
I28
sI2669
I27
sI2670
I129
sI2671
I81
sI2672
I29
sI2673
I14
sI2674
I26
sI2675
I59
sI2676
I15
sI2677
I19
sI2678
I60
sI2679
I53
sI2680
I23
sI2681
I23
sI2682
I23
sI2683
I29
sI2684
I23
sI2685
I59
sI2686
I23
sI2687
I23
sI2688
I23
sI2689
I23
sI2690
I23
sI2691
I18
sI2692
I14
sI2693
I59
sI2694
I59
sI2695
I59
sI2696
I59
sI2697
I59
sI2698
I59
sI2699
I59
sI2700
I59
sI2701
I24
sI2702
I57
sI2703
I57
sI2704
I57
sI2705
I23
sI2706
I23
sI2707
I30
sI2708
I15
sI2709
I23
sI2710
I23
sI2711
I23
sI2712
I23
sI2713
g10
sI2714
I23
sI2715
I23
sI2716
I23
sI2717
g10
sI2718
I15
sI2719
I19
sI2720
I30
sI2721
I30
sI2722
g10
sI2723
g10
sI2724
I71
sI2725
I16
sI2726
I42
sI2727
I61
sI2728
I13
sI2729
I25
sI2730
I16
sI2731
I18
sI2732
I45
sI2733
g10
sI2734
I13
sI2735
I14
sI2736
I15
sI2737
I96
sI2738
I188
sI2739
I31
sI2740
I17
sI2741
g10
sI2742
I14
sI2743
I54
sI2744
I26
sI2745
I15
sI2746
I29
sI2747
I94
sI2748
I17
sI2749
g10
sI2750
I16
sI2751
I25
sI2752
g10
sI2753
I16
sI2754
I15
sI2755
I124
sI2756
I43
sI2757
I19
sI2758
I20
sI2759
I31
sI2760
I16
sI2761
I17
sI2762
I86
sI2763
I27
sI2764
I230
sI2765
I17
sI2766
I62
sI2767
g10
sI2768
I27
sI2769
I55
sI2770
I37
sI2771
I23
sI2772
I20
sI2773
I29
sI2774
I28
sI2775
I53
sI2776
I17
sI2777
g10
sI2778
I14
sI2779
I56
sI2780
I119
sI2781
I77
sI2782
I27
sI2783
I16
sI2784
I30
sI2785
I19
sI2786
I17
sI2787
I15
sI2788
I64
sI2789
I64
sI2790
I14
sI2791
I60
sI2792
I18
sI2793
I48
sI2794
I53
sI2795
I17
sI2796
I107
sI2797
I24
sI2798
I42
sI2799
I37
sI2800
I22
sI2801
I19
sI2802
I27
sI2803
I16
sI2804
I16
sI2805
I53
sI2806
I53
sI2807
g10
sI2808
I53
sI2809
I52
sI2810
I51
sI2811
I51
sI2812
I52
sI2813
I18
sI2814
I17
sI2815
I16
sI2816
I14
sI2817
I47
sI2818
I91
s.